---
triple:          'arm64-apple-darwin'
binary-path:     '/Users/aqmeraamir/Desktop/Chess-AI/bin/main'
relocations:
  - { offsetInCU: 0x3059, offset: 0x3059, size: 0x8, addend: 0x0, symName: __ZNSt3__124__put_character_sequenceB8ue170006IcNS_11char_traitsIcEEEERNS_13basic_ostreamIT_T0_EES7_PKS4_m, symObjAddr: 0x137C, symBinAddr: 0x1000047EC, symSize: 0x1EC }
  - { offsetInCU: 0x5EAE, offset: 0x5EAE, size: 0x8, addend: 0x0, symName: __ZNSt3__13getB8ue170006ILm0EcbEEONS_13tuple_elementIXT_ENS_4pairIT0_T1_EEE4typeEOS5_, symObjAddr: 0x36C, symBinAddr: 0x1000037DC, symSize: 0x24 }
  - { offsetInCU: 0x5EF8, offset: 0x5EF8, size: 0x8, addend: 0x0, symName: __ZNSt3__13getB8ue170006ILm1EcbEEONS_13tuple_elementIXT_ENS_4pairIT0_T1_EEE4typeEOS5_, symObjAddr: 0x390, symBinAddr: 0x100003800, symSize: 0x24 }
  - { offsetInCU: 0x5F42, offset: 0x5F42, size: 0x8, addend: 0x0, symName: __ZNSt3__1lsB8ue170006INS_11char_traitsIcEEEERNS_13basic_ostreamIcT_EES6_PKc, symObjAddr: 0x850, symBinAddr: 0x100003CC0, symSize: 0x48 }
  - { offsetInCU: 0x5F88, offset: 0x5F88, size: 0x8, addend: 0x0, symName: __ZNSt3__1rsB8ue170006IcNS_11char_traitsIcEENS_9allocatorIcEEEERNS_13basic_istreamIT_T0_EES9_RNS_12basic_stringIS6_S7_T1_EE, symObjAddr: 0x898, symBinAddr: 0x100003D08, symSize: 0x30C }
  - { offsetInCU: 0x6055, offset: 0x6055, size: 0x8, addend: 0x0, symName: __ZNSt3__1eqB8ue170006IcNS_11char_traitsIcEENS_9allocatorIcEEEEbRKNS_12basic_stringIT_T0_T1_EEPKS6_, symObjAddr: 0xBA4, symBinAddr: 0x100004014, symSize: 0xAC }
  - { offsetInCU: 0x60BC, offset: 0x60BC, size: 0x8, addend: 0x0, symName: __ZNSt3__1eqB8ue170006IP4MoveEEbRKNS_11__wrap_iterIT_EES7_, symObjAddr: 0xC50, symBinAddr: 0x1000040C0, symSize: 0x48 }
  - { offsetInCU: 0x60FF, offset: 0x60FF, size: 0x8, addend: 0x0, symName: __ZNSt3__14findB8ue170006INS_11__wrap_iterIP4MoveEES2_EET_S5_S5_RKT0_, symObjAddr: 0xC98, symBinAddr: 0x100004108, symSize: 0x78 }
  - { offsetInCU: 0x6167, offset: 0x6167, size: 0x8, addend: 0x0, symName: __ZNSt3__13getB8ue170006ILm0Ei4MoveEEONS_13tuple_elementIXT_ENS_4pairIT0_T1_EEE4typeEOS6_, symObjAddr: 0xD70, symBinAddr: 0x1000041E0, symSize: 0x24 }
  - { offsetInCU: 0x61B1, offset: 0x61B1, size: 0x8, addend: 0x0, symName: __ZNSt3__13getB8ue170006ILm1Ei4MoveEEONS_13tuple_elementIXT_ENS_4pairIT0_T1_EEE4typeEOS6_, symObjAddr: 0xD94, symBinAddr: 0x100004204, symSize: 0x24 }
  - { offsetInCU: 0x61FB, offset: 0x61FB, size: 0x8, addend: 0x0, symName: __ZNSt3__1lsB8ue170006IcNS_11char_traitsIcEENS_9allocatorIcEEEERNS_13basic_ostreamIT_T0_EES9_RKNS_12basic_stringIS6_S7_T1_EE, symObjAddr: 0xDB8, symBinAddr: 0x100004228, symSize: 0x4C }
  - { offsetInCU: 0x6253, offset: 0x6253, size: 0x8, addend: 0x0, symName: __ZNSt3__14endlB8ue170006IcNS_11char_traitsIcEEEERNS_13basic_ostreamIT_T0_EES7_, symObjAddr: 0xE30, symBinAddr: 0x1000042A0, symSize: 0x58 }
  - { offsetInCU: 0x64A7, offset: 0x64A7, size: 0x8, addend: 0x0, symName: __ZNSt3__116__pad_and_outputB8ue170006IcNS_11char_traitsIcEEEENS_19ostreambuf_iteratorIT_T0_EES6_PKS4_S8_S8_RNS_8ios_baseES4_, symObjAddr: 0x15B8, symBinAddr: 0x100004A28, symSize: 0x240 }
  - { offsetInCU: 0x6576, offset: 0x6576, size: 0x8, addend: 0x0, symName: __ZNSt3__112__to_addressB8ue170006IcEEPT_S2_, symObjAddr: 0x1A28, symBinAddr: 0x100004E98, symSize: 0x14 }
  - { offsetInCU: 0x65DE, offset: 0x65DE, size: 0x8, addend: 0x0, symName: __ZNSt3__19use_facetB8ue170006INS_5ctypeIcEEEERKT_RKNS_6localeE, symObjAddr: 0x1C38, symBinAddr: 0x1000050A8, symSize: 0x2C }
  - { offsetInCU: 0x69BC, offset: 0x69BC, size: 0x8, addend: 0x0, symName: __ZNSt3__118__constexpr_strlenB8ue170006EPKc, symObjAddr: 0x1CD0, symBinAddr: 0x100005140, symSize: 0x24 }
  - { offsetInCU: 0x7349, offset: 0x7349, size: 0x8, addend: 0x0, symName: __ZNSt3__112__to_addressB8ue170006I4MoveEEPT_S3_, symObjAddr: 0x25A0, symBinAddr: 0x100005A10, symSize: 0x14 }
  - { offsetInCU: 0x737E, offset: 0x737E, size: 0x8, addend: 0x0, symName: __ZNSt3__119__libcpp_deallocateB8ue170006EPvmm, symObjAddr: 0x267C, symBinAddr: 0x100005AEC, symSize: 0x60 }
  - { offsetInCU: 0x73E3, offset: 0x73E3, size: 0x8, addend: 0x0, symName: __ZNSt3__124__is_overaligned_for_newB8ue170006Em, symObjAddr: 0x26DC, symBinAddr: 0x100005B4C, symSize: 0x20 }
  - { offsetInCU: 0x7411, offset: 0x7411, size: 0x8, addend: 0x0, symName: __ZNSt3__127__do_deallocate_handle_sizeB8ue170006IJSt11align_val_tEEEvPvmDpT_, symObjAddr: 0x26FC, symBinAddr: 0x100005B6C, symSize: 0x30 }
  - { offsetInCU: 0x7464, offset: 0x7464, size: 0x8, addend: 0x0, symName: __ZNSt3__127__do_deallocate_handle_sizeB8ue170006IJEEEvPvmDpT_, symObjAddr: 0x272C, symBinAddr: 0x100005B9C, symSize: 0x28 }
  - { offsetInCU: 0x74A2, offset: 0x74A2, size: 0x8, addend: 0x0, symName: __ZNSt3__124__libcpp_operator_deleteB8ue170006IJPvSt11align_val_tEEEvDpT_, symObjAddr: 0x2754, symBinAddr: 0x100005BC4, symSize: 0x2C }
  - { offsetInCU: 0x74EB, offset: 0x74EB, size: 0x8, addend: 0x0, symName: __ZNSt3__124__libcpp_operator_deleteB8ue170006IJPvEEEvDpT_, symObjAddr: 0x2780, symBinAddr: 0x100005BF0, symSize: 0x24 }
  - { offsetInCU: 0x7520, offset: 0x7520, size: 0x8, addend: 0x0, symName: __ZNSt3__113__rewrap_iterB8ue170006INS_11__wrap_iterIP4MoveEES3_NS_18__unwrap_iter_implIS4_Lb1EEEEET_S7_T0_, symObjAddr: 0x28C0, symBinAddr: 0x100005D30, symSize: 0x4C }
  - { offsetInCU: 0x7575, offset: 0x7575, size: 0x8, addend: 0x0, symName: __ZNSt3__111__find_implB8ue170006IP4MoveS2_S1_NS_10__identityEEET_S4_T0_RKT1_RT2_, symObjAddr: 0x290C, symBinAddr: 0x100005D7C, symSize: 0x7C }
  - { offsetInCU: 0x75EF, offset: 0x75EF, size: 0x8, addend: 0x0, symName: __ZNSt3__113__unwrap_iterB8ue170006INS_11__wrap_iterIP4MoveEENS_18__unwrap_iter_implIS4_Lb1EEELi0EEEDTclsrT0_8__unwrapclsr3stdE7declvalIT_EEEES8_, symObjAddr: 0x2988, symBinAddr: 0x100005DF8, symSize: 0x2C }
  - { offsetInCU: 0x7686, offset: 0x7686, size: 0x8, addend: 0x0, symName: __ZNSt3__112__to_addressB8ue170006INS_11__wrap_iterIP4MoveEEvEEu7__decayIDTclsr19__to_address_helperIT_EE6__callclsr3stdE7declvalIRKS5_EEEEES7_, symObjAddr: 0x2A4C, symBinAddr: 0x100005EBC, symSize: 0x24 }
  - { offsetInCU: 0x7761, offset: 0x7761, size: 0x8, addend: 0x0, symName: __ZNSt3__18__invokeB8ue170006IRNS_10__identityEJR4MoveEEEDTclclsr3stdE7declvalIT_EEspclsr3stdE7declvalIT0_EEEEOS5_DpOS6_, symObjAddr: 0x2AFC, symBinAddr: 0x100005F6C, symSize: 0x2C }
  - { offsetInCU: 0x77DF, offset: 0x77DF, size: 0x8, addend: 0x0, symName: __ZNSt3__112__to_addressB8ue170006IKcEEPT_S3_, symObjAddr: 0x2C48, symBinAddr: 0x1000060B8, symSize: 0x14 }
  - { offsetInCU: 0xA2CE, offset: 0xA2CE, size: 0x8, addend: 0x0, symName: __Z9parseMoveR10ChessBoardNSt3__112basic_stringIcNS1_11char_traitsIcEENS1_9allocatorIcEEEE, symObjAddr: 0x0, symBinAddr: 0x100003470, symSize: 0x2AC }
  - { offsetInCU: 0xA396, offset: 0xA396, size: 0x8, addend: 0x0, symName: __ZNKSt3__112basic_stringIcNS_11char_traitsIcEENS_9allocatorIcEEE6lengthB8ue170006Ev, symObjAddr: 0x2AC, symBinAddr: 0x10000371C, symSize: 0x24 }
  - { offsetInCU: 0xA3BC, offset: 0xA3BC, size: 0x8, addend: 0x0, symName: __ZNSt16invalid_argumentC1B8ue170006EPKc, symObjAddr: 0x2D0, symBinAddr: 0x100003740, symSize: 0x34 }
  - { offsetInCU: 0xA3F4, offset: 0xA3F4, size: 0x8, addend: 0x0, symName: __ZNKSt3__112basic_stringIcNS_11char_traitsIcEENS_9allocatorIcEEE6substrB8ue170006Emm, symObjAddr: 0x304, symBinAddr: 0x100003774, symSize: 0x68 }
  - { offsetInCU: 0xA438, offset: 0xA438, size: 0x8, addend: 0x0, symName: __Z8gameLoopR10ChessBoard, symObjAddr: 0x3B4, symBinAddr: 0x100003824, symSize: 0x470 }
  - { offsetInCU: 0xA4BC, offset: 0xA4BC, size: 0x8, addend: 0x0, symName: __ZNSt3__112basic_stringIcNS_11char_traitsIcEENS_9allocatorIcEEEC1B8ue170006Ev, symObjAddr: 0x824, symBinAddr: 0x100003C94, symSize: 0x2C }
  - { offsetInCU: 0xA4E6, offset: 0xA4E6, size: 0x8, addend: 0x0, symName: __ZNSt3__16vectorI4MoveNS_9allocatorIS1_EEE5beginB8ue170006Ev, symObjAddr: 0xD10, symBinAddr: 0x100004180, symSize: 0x30 }
  - { offsetInCU: 0xA50E, offset: 0xA50E, size: 0x8, addend: 0x0, symName: __ZNSt3__16vectorI4MoveNS_9allocatorIS1_EEE3endB8ue170006Ev, symObjAddr: 0xD40, symBinAddr: 0x1000041B0, symSize: 0x30 }
  - { offsetInCU: 0xA536, offset: 0xA536, size: 0x8, addend: 0x0, symName: __ZNSt3__113basic_ostreamIcNS_11char_traitsIcEEElsB8ue170006EPFRS3_S4_E, symObjAddr: 0xE04, symBinAddr: 0x100004274, symSize: 0x2C }
  - { offsetInCU: 0xA56A, offset: 0xA56A, size: 0x8, addend: 0x0, symName: __ZNSt3__16vectorI4MoveNS_9allocatorIS1_EEED1B8ue170006Ev, symObjAddr: 0xE88, symBinAddr: 0x1000042F8, symSize: 0x2C }
  - { offsetInCU: 0xA594, offset: 0xA594, size: 0x8, addend: 0x0, symName: _main, symObjAddr: 0xEB4, symBinAddr: 0x100004324, symSize: 0x3C }
  - { offsetInCU: 0xA969, offset: 0xA969, size: 0x8, addend: 0x0, symName: __ZN10ChessBoardC1Ev, symObjAddr: 0xEF0, symBinAddr: 0x100004360, symSize: 0x2C }
  - { offsetInCU: 0xA995, offset: 0xA995, size: 0x8, addend: 0x0, symName: __ZNSt16invalid_argumentC2B8ue170006EPKc, symObjAddr: 0xF1C, symBinAddr: 0x10000438C, symSize: 0x4C }
  - { offsetInCU: 0xA9D2, offset: 0xA9D2, size: 0x8, addend: 0x0, symName: __ZNSt3__110__get_pairILm0EE3getB8ue170006IcbEEOT_ONS_4pairIS3_T0_EE, symObjAddr: 0xF68, symBinAddr: 0x1000043D8, symSize: 0x14 }
  - { offsetInCU: 0xAA0D, offset: 0xAA0D, size: 0x8, addend: 0x0, symName: __ZNSt3__110__get_pairILm1EE3getB8ue170006IcbEEOT0_ONS_4pairIT_S3_EE, symObjAddr: 0xF7C, symBinAddr: 0x1000043EC, symSize: 0x18 }
  - { offsetInCU: 0xAA43, offset: 0xAA43, size: 0x8, addend: 0x0, symName: __ZNKSt3__111__wrap_iterIP4MoveE4baseB8ue170006Ev, symObjAddr: 0xF94, symBinAddr: 0x100004404, symSize: 0x18 }
  - { offsetInCU: 0xAA87, offset: 0xAA87, size: 0x8, addend: 0x0, symName: __ZNSt3__110__get_pairILm0EE3getB8ue170006Ii4MoveEEOT_ONS_4pairIS4_T0_EE, symObjAddr: 0xFAC, symBinAddr: 0x10000441C, symSize: 0x14 }
  - { offsetInCU: 0xAAC2, offset: 0xAAC2, size: 0x8, addend: 0x0, symName: __ZNSt3__110__get_pairILm1EE3getB8ue170006Ii4MoveEEOT0_ONS_4pairIT_S4_EE, symObjAddr: 0xFC0, symBinAddr: 0x100004430, symSize: 0x18 }
  - { offsetInCU: 0xAAF8, offset: 0xAAF8, size: 0x8, addend: 0x0, symName: __ZN10ChessBoardC2Ev, symObjAddr: 0xFD8, symBinAddr: 0x100004448, symSize: 0x94 }
  - { offsetInCU: 0xAB24, offset: 0xAB24, size: 0x8, addend: 0x0, symName: __ZNKSt3__112basic_stringIcNS_11char_traitsIcEENS_9allocatorIcEEE4sizeB8ue170006Ev, symObjAddr: 0x106C, symBinAddr: 0x1000044DC, symSize: 0x54 }
  - { offsetInCU: 0xAB4A, offset: 0xAB4A, size: 0x8, addend: 0x0, symName: __ZNKSt3__112basic_stringIcNS_11char_traitsIcEENS_9allocatorIcEEE9__is_longB8ue170006Ev, symObjAddr: 0x10C0, symBinAddr: 0x100004530, symSize: 0x38 }
  - { offsetInCU: 0xAB70, offset: 0xAB70, size: 0x8, addend: 0x0, symName: __ZNKSt3__112basic_stringIcNS_11char_traitsIcEENS_9allocatorIcEEE15__get_long_sizeB8ue170006Ev, symObjAddr: 0x10F8, symBinAddr: 0x100004568, symSize: 0x28 }
  - { offsetInCU: 0xAB96, offset: 0xAB96, size: 0x8, addend: 0x0, symName: __ZNKSt3__112basic_stringIcNS_11char_traitsIcEENS_9allocatorIcEEE16__get_short_sizeB8ue170006Ev, symObjAddr: 0x1120, symBinAddr: 0x100004590, symSize: 0x34 }
  - { offsetInCU: 0xABBC, offset: 0xABBC, size: 0x8, addend: 0x0, symName: __ZNKSt3__117__compressed_pairINS_12basic_stringIcNS_11char_traitsIcEENS_9allocatorIcEEE5__repES5_E5firstB8ue170006Ev, symObjAddr: 0x1154, symBinAddr: 0x1000045C4, symSize: 0x24 }
  - { offsetInCU: 0xABE2, offset: 0xABE2, size: 0x8, addend: 0x0, symName: __ZNKSt3__122__compressed_pair_elemINS_12basic_stringIcNS_11char_traitsIcEENS_9allocatorIcEEE5__repELi0ELb0EE5__getB8ue170006Ev, symObjAddr: 0x1178, symBinAddr: 0x1000045E8, symSize: 0x14 }
  - { offsetInCU: 0xAC08, offset: 0xAC08, size: 0x8, addend: 0x0, symName: __ZNSt3__19allocatorIcEC1B8ue170006Ev, symObjAddr: 0x118C, symBinAddr: 0x1000045FC, symSize: 0x2C }
  - { offsetInCU: 0xAC32, offset: 0xAC32, size: 0x8, addend: 0x0, symName: __ZNSt3__19allocatorIcEC2B8ue170006Ev, symObjAddr: 0x11B8, symBinAddr: 0x100004628, symSize: 0x2C }
  - { offsetInCU: 0xAC5C, offset: 0xAC5C, size: 0x8, addend: 0x0, symName: __ZNSt3__116__non_trivial_ifILb1ENS_9allocatorIcEEEC2B8ue170006Ev, symObjAddr: 0x11E4, symBinAddr: 0x100004654, symSize: 0x14 }
  - { offsetInCU: 0xAC86, offset: 0xAC86, size: 0x8, addend: 0x0, symName: __ZNSt3__112basic_stringIcNS_11char_traitsIcEENS_9allocatorIcEEEC2B8ue170006Ev, symObjAddr: 0x11F8, symBinAddr: 0x100004668, symSize: 0x48 }
  - { offsetInCU: 0xACB5, offset: 0xACB5, size: 0x8, addend: 0x0, symName: __ZNSt3__117__compressed_pairINS_12basic_stringIcNS_11char_traitsIcEENS_9allocatorIcEEE5__repES5_EC1B8ue170006INS_18__default_init_tagESA_EEOT_OT0_, symObjAddr: 0x1240, symBinAddr: 0x1000046B0, symSize: 0x3C }
  - { offsetInCU: 0xAD0D, offset: 0xAD0D, size: 0x8, addend: 0x0, symName: __ZNSt3__112basic_stringIcNS_11char_traitsIcEENS_9allocatorIcEEE14__default_initB8ue170006Ev, symObjAddr: 0x1288, symBinAddr: 0x1000046F8, symSize: 0x40 }
  - { offsetInCU: 0xAD33, offset: 0xAD33, size: 0x8, addend: 0x0, symName: __ZNSt3__117__compressed_pairINS_12basic_stringIcNS_11char_traitsIcEENS_9allocatorIcEEE5__repES5_EC2B8ue170006INS_18__default_init_tagESA_EEOT_OT0_, symObjAddr: 0x12C8, symBinAddr: 0x100004738, symSize: 0x3C }
  - { offsetInCU: 0xAD8B, offset: 0xAD8B, size: 0x8, addend: 0x0, symName: __ZNSt3__122__compressed_pair_elemINS_12basic_stringIcNS_11char_traitsIcEENS_9allocatorIcEEE5__repELi0ELb0EEC2B8ue170006ENS_18__default_init_tagE, symObjAddr: 0x1304, symBinAddr: 0x100004774, symSize: 0x14 }
  - { offsetInCU: 0xADC0, offset: 0xADC0, size: 0x8, addend: 0x0, symName: __ZNSt3__122__compressed_pair_elemINS_9allocatorIcEELi1ELb1EEC2B8ue170006ENS_18__default_init_tagE, symObjAddr: 0x1318, symBinAddr: 0x100004788, symSize: 0x2C }
  - { offsetInCU: 0xADF5, offset: 0xADF5, size: 0x8, addend: 0x0, symName: __ZNSt3__117__compressed_pairINS_12basic_stringIcNS_11char_traitsIcEENS_9allocatorIcEEE5__repES5_E5firstB8ue170006Ev, symObjAddr: 0x1344, symBinAddr: 0x1000047B4, symSize: 0x24 }
  - { offsetInCU: 0xAE1B, offset: 0xAE1B, size: 0x8, addend: 0x0, symName: __ZNSt3__122__compressed_pair_elemINS_12basic_stringIcNS_11char_traitsIcEENS_9allocatorIcEEE5__repELi0ELb0EE5__getB8ue170006Ev, symObjAddr: 0x1368, symBinAddr: 0x1000047D8, symSize: 0x14 }
  - { offsetInCU: 0xAE41, offset: 0xAE41, size: 0x8, addend: 0x0, symName: __ZNSt3__111char_traitsIcE6lengthB8ue170006EPKc, symObjAddr: 0x1568, symBinAddr: 0x1000049D8, symSize: 0x34 }
  - { offsetInCU: 0xAE82, offset: 0xAE82, size: 0x8, addend: 0x0, symName: __ZNKSt3__113basic_ostreamIcNS_11char_traitsIcEEE6sentrycvbB8ue170006Ev, symObjAddr: 0x159C, symBinAddr: 0x100004A0C, symSize: 0x1C }
  - { offsetInCU: 0xAEA8, offset: 0xAEA8, size: 0x8, addend: 0x0, symName: __ZNSt3__119ostreambuf_iteratorIcNS_11char_traitsIcEEEC1B8ue170006ERNS_13basic_ostreamIcS2_EE, symObjAddr: 0x17F8, symBinAddr: 0x100004C68, symSize: 0x34 }
  - { offsetInCU: 0xAEE0, offset: 0xAEE0, size: 0x8, addend: 0x0, symName: __ZNKSt3__18ios_base5flagsB8ue170006Ev, symObjAddr: 0x182C, symBinAddr: 0x100004C9C, symSize: 0x18 }
  - { offsetInCU: 0xAF08, offset: 0xAF08, size: 0x8, addend: 0x0, symName: __ZNKSt3__19basic_iosIcNS_11char_traitsIcEEE4fillB8ue170006Ev, symObjAddr: 0x1844, symBinAddr: 0x100004CB4, symSize: 0x64 }
  - { offsetInCU: 0xAF30, offset: 0xAF30, size: 0x8, addend: 0x0, symName: __ZNKSt3__119ostreambuf_iteratorIcNS_11char_traitsIcEEE6failedB8ue170006Ev, symObjAddr: 0x18A8, symBinAddr: 0x100004D18, symSize: 0x24 }
  - { offsetInCU: 0xAF56, offset: 0xAF56, size: 0x8, addend: 0x0, symName: __ZNSt3__19basic_iosIcNS_11char_traitsIcEEE8setstateB8ue170006Ej, symObjAddr: 0x18CC, symBinAddr: 0x100004D3C, symSize: 0x2C }
  - { offsetInCU: 0xAF8B, offset: 0xAF8B, size: 0x8, addend: 0x0, symName: __ZNKSt3__18ios_base5widthB8ue170006Ev, symObjAddr: 0x18F8, symBinAddr: 0x100004D68, symSize: 0x18 }
  - { offsetInCU: 0xAFB3, offset: 0xAFB3, size: 0x8, addend: 0x0, symName: __ZNSt3__115basic_streambufIcNS_11char_traitsIcEEE5sputnB8ue170006EPKcl, symObjAddr: 0x1910, symBinAddr: 0x100004D80, symSize: 0x3C }
  - { offsetInCU: 0xAFF5, offset: 0xAFF5, size: 0x8, addend: 0x0, symName: __ZNSt3__112basic_stringIcNS_11char_traitsIcEENS_9allocatorIcEEEC1B8ue170006Emc, symObjAddr: 0x194C, symBinAddr: 0x100004DBC, symSize: 0x3C }
  - { offsetInCU: 0xB03D, offset: 0xB03D, size: 0x8, addend: 0x0, symName: __ZNSt3__112basic_stringIcNS_11char_traitsIcEENS_9allocatorIcEEE4dataB8ue170006Ev, symObjAddr: 0x1988, symBinAddr: 0x100004DF8, symSize: 0x28 }
  - { offsetInCU: 0xB063, offset: 0xB063, size: 0x8, addend: 0x0, symName: __ZNSt3__18ios_base5widthB8ue170006El, symObjAddr: 0x19B0, symBinAddr: 0x100004E20, symSize: 0x2C }
  - { offsetInCU: 0xB0A9, offset: 0xB0A9, size: 0x8, addend: 0x0, symName: __ZNSt3__112basic_stringIcNS_11char_traitsIcEENS_9allocatorIcEEEC2B8ue170006Emc, symObjAddr: 0x19DC, symBinAddr: 0x100004E4C, symSize: 0x4C }
  - { offsetInCU: 0xB0F1, offset: 0xB0F1, size: 0x8, addend: 0x0, symName: __ZNSt3__112basic_stringIcNS_11char_traitsIcEENS_9allocatorIcEEE13__get_pointerB8ue170006Ev, symObjAddr: 0x1A3C, symBinAddr: 0x100004EAC, symSize: 0x54 }
  - { offsetInCU: 0xB117, offset: 0xB117, size: 0x8, addend: 0x0, symName: __ZNSt3__112basic_stringIcNS_11char_traitsIcEENS_9allocatorIcEEE18__get_long_pointerB8ue170006Ev, symObjAddr: 0x1A90, symBinAddr: 0x100004F00, symSize: 0x28 }
  - { offsetInCU: 0xB13D, offset: 0xB13D, size: 0x8, addend: 0x0, symName: __ZNSt3__112basic_stringIcNS_11char_traitsIcEENS_9allocatorIcEEE19__get_short_pointerB8ue170006Ev, symObjAddr: 0x1AB8, symBinAddr: 0x100004F28, symSize: 0x28 }
  - { offsetInCU: 0xB163, offset: 0xB163, size: 0x8, addend: 0x0, symName: __ZNSt3__114pointer_traitsIPcE10pointer_toB8ue170006ERc, symObjAddr: 0x1AE0, symBinAddr: 0x100004F50, symSize: 0x14 }
  - { offsetInCU: 0xB186, offset: 0xB186, size: 0x8, addend: 0x0, symName: __ZNSt3__119ostreambuf_iteratorIcNS_11char_traitsIcEEEC2B8ue170006ERNS_13basic_ostreamIcS2_EE, symObjAddr: 0x1AF4, symBinAddr: 0x100004F64, symSize: 0x54 }
  - { offsetInCU: 0xB1BE, offset: 0xB1BE, size: 0x8, addend: 0x0, symName: __ZNKSt3__19basic_iosIcNS_11char_traitsIcEEE5rdbufB8ue170006Ev, symObjAddr: 0x1B48, symBinAddr: 0x100004FB8, symSize: 0x24 }
  - { offsetInCU: 0xB1E6, offset: 0xB1E6, size: 0x8, addend: 0x0, symName: __ZNKSt3__18ios_base5rdbufB8ue170006Ev, symObjAddr: 0x1B6C, symBinAddr: 0x100004FDC, symSize: 0x18 }
  - { offsetInCU: 0xB20C, offset: 0xB20C, size: 0x8, addend: 0x0, symName: __ZNSt3__111char_traitsIcE11eq_int_typeB8ue170006Eii, symObjAddr: 0x1B84, symBinAddr: 0x100004FF4, symSize: 0x28 }
  - { offsetInCU: 0xB23F, offset: 0xB23F, size: 0x8, addend: 0x0, symName: __ZNSt3__111char_traitsIcE3eofB8ue170006Ev, symObjAddr: 0x1BAC, symBinAddr: 0x10000501C, symSize: 0x8 }
  - { offsetInCU: 0xB253, offset: 0xB253, size: 0x8, addend: 0x0, symName: __ZNKSt3__19basic_iosIcNS_11char_traitsIcEEE5widenB8ue170006Ec, symObjAddr: 0x1BB4, symBinAddr: 0x100005024, symSize: 0x84 }
  - { offsetInCU: 0xB2B7, offset: 0xB2B7, size: 0x8, addend: 0x0, symName: __ZNKSt3__15ctypeIcE5widenB8ue170006Ec, symObjAddr: 0x1C64, symBinAddr: 0x1000050D4, symSize: 0x38 }
  - { offsetInCU: 0xB2EC, offset: 0xB2EC, size: 0x8, addend: 0x0, symName: __ZNSt3__18ios_base8setstateB8ue170006Ej, symObjAddr: 0x1C9C, symBinAddr: 0x10000510C, symSize: 0x34 }
  - { offsetInCU: 0xB3B5, offset: 0xB3B5, size: 0x8, addend: 0x0, symName: __ZNKSt3__113basic_istreamIcNS_11char_traitsIcEEE6sentrycvbB8ue170006Ev, symObjAddr: 0x1CF4, symBinAddr: 0x100005164, symSize: 0x1C }
  - { offsetInCU: 0xB3DB, offset: 0xB3DB, size: 0x8, addend: 0x0, symName: __ZNSt3__112basic_stringIcNS_11char_traitsIcEENS_9allocatorIcEEE5clearB8ue170006Ev, symObjAddr: 0x1D10, symBinAddr: 0x100005180, symSize: 0x78 }
  - { offsetInCU: 0xB403, offset: 0xB403, size: 0x8, addend: 0x0, symName: __ZNKSt3__112basic_stringIcNS_11char_traitsIcEENS_9allocatorIcEEE8max_sizeB8ue170006Ev, symObjAddr: 0x1D88, symBinAddr: 0x1000051F8, symSize: 0xAC }
  - { offsetInCU: 0xB455, offset: 0xB455, size: 0x8, addend: 0x0, symName: __ZNSt3__114numeric_limitsIlE3maxB8ue170006Ev, symObjAddr: 0x1E34, symBinAddr: 0x1000052A4, symSize: 0x14 }
  - { offsetInCU: 0xB469, offset: 0xB469, size: 0x8, addend: 0x0, symName: __ZNSt3__115basic_streambufIcNS_11char_traitsIcEEE5sgetcB8ue170006Ev, symObjAddr: 0x1E48, symBinAddr: 0x1000052B8, symSize: 0x70 }
  - { offsetInCU: 0xB48F, offset: 0xB48F, size: 0x8, addend: 0x0, symName: __ZNSt3__111char_traitsIcE12to_char_typeB8ue170006Ei, symObjAddr: 0x1EB8, symBinAddr: 0x100005328, symSize: 0x18 }
  - { offsetInCU: 0xB4B2, offset: 0xB4B2, size: 0x8, addend: 0x0, symName: __ZNKSt3__15ctypeIcE2isB8ue170006Ejc, symObjAddr: 0x1ED0, symBinAddr: 0x100005340, symSize: 0x7C }
  - { offsetInCU: 0xB4F6, offset: 0xB4F6, size: 0x8, addend: 0x0, symName: __ZNSt3__115basic_streambufIcNS_11char_traitsIcEEE6sbumpcB8ue170006Ev, symObjAddr: 0x1F4C, symBinAddr: 0x1000053BC, symSize: 0x78 }
  - { offsetInCU: 0xB51C, offset: 0xB51C, size: 0x8, addend: 0x0, symName: __ZNSt3__18ios_base18__setstate_nothrowB8ue170006Ej, symObjAddr: 0x1FC4, symBinAddr: 0x100005434, symSize: 0x64 }
  - { offsetInCU: 0xB551, offset: 0xB551, size: 0x8, addend: 0x0, symName: __ZNKSt3__19basic_iosIcNS_11char_traitsIcEEE10exceptionsB8ue170006Ev, symObjAddr: 0x2028, symBinAddr: 0x100005498, symSize: 0x24 }
  - { offsetInCU: 0xB577, offset: 0xB577, size: 0x8, addend: 0x0, symName: __ZNSt3__111char_traitsIcE6assignB8ue170006ERcRKc, symObjAddr: 0x204C, symBinAddr: 0x1000054BC, symSize: 0x24 }
  - { offsetInCU: 0xB5A8, offset: 0xB5A8, size: 0x8, addend: 0x0, symName: __ZNSt3__112basic_stringIcNS_11char_traitsIcEENS_9allocatorIcEEE15__set_long_sizeB8ue170006Em, symObjAddr: 0x2070, symBinAddr: 0x1000054E0, symSize: 0x38 }
  - { offsetInCU: 0xB5DD, offset: 0xB5DD, size: 0x8, addend: 0x0, symName: __ZNSt3__112basic_stringIcNS_11char_traitsIcEENS_9allocatorIcEEE16__set_short_sizeB8ue170006Em, symObjAddr: 0x20A8, symBinAddr: 0x100005518, symSize: 0x78 }
  - { offsetInCU: 0xB61C, offset: 0xB61C, size: 0x8, addend: 0x0, symName: __ZNSt3__116allocator_traitsINS_9allocatorIcEEE8max_sizeB8ue170006IS2_vEEmRKS2_, symObjAddr: 0x2120, symBinAddr: 0x100005590, symSize: 0x24 }
  - { offsetInCU: 0xB64A, offset: 0xB64A, size: 0x8, addend: 0x0, symName: __ZNKSt3__112basic_stringIcNS_11char_traitsIcEENS_9allocatorIcEEE7__allocB8ue170006Ev, symObjAddr: 0x2144, symBinAddr: 0x1000055B4, symSize: 0x24 }
  - { offsetInCU: 0xB670, offset: 0xB670, size: 0x8, addend: 0x0, symName: __ZNSt3__114numeric_limitsImE3maxB8ue170006Ev, symObjAddr: 0x2168, symBinAddr: 0x1000055D8, symSize: 0x14 }
  - { offsetInCU: 0xB684, offset: 0xB684, size: 0x8, addend: 0x0, symName: __ZNKSt3__19allocatorIcE8max_sizeB8ue170006Ev, symObjAddr: 0x217C, symBinAddr: 0x1000055EC, symSize: 0x14 }
  - { offsetInCU: 0xB6AA, offset: 0xB6AA, size: 0x8, addend: 0x0, symName: __ZNKSt3__117__compressed_pairINS_12basic_stringIcNS_11char_traitsIcEENS_9allocatorIcEEE5__repES5_E6secondB8ue170006Ev, symObjAddr: 0x2190, symBinAddr: 0x100005600, symSize: 0x24 }
  - { offsetInCU: 0xB6D0, offset: 0xB6D0, size: 0x8, addend: 0x0, symName: __ZNKSt3__122__compressed_pair_elemINS_9allocatorIcEELi1ELb1EE5__getB8ue170006Ev, symObjAddr: 0x21B4, symBinAddr: 0x100005624, symSize: 0x14 }
  - { offsetInCU: 0xB6F6, offset: 0xB6F6, size: 0x8, addend: 0x0, symName: __ZNSt3__123__libcpp_numeric_limitsImLb1EE3maxB8ue170006Ev, symObjAddr: 0x21C8, symBinAddr: 0x100005638, symSize: 0x8 }
  - { offsetInCU: 0xB70A, offset: 0xB70A, size: 0x8, addend: 0x0, symName: __ZNSt3__123__libcpp_numeric_limitsIlLb1EE3maxB8ue170006Ev, symObjAddr: 0x21D0, symBinAddr: 0x100005640, symSize: 0x8 }
  - { offsetInCU: 0xB71E, offset: 0xB71E, size: 0x8, addend: 0x0, symName: __ZNSt3__111char_traitsIcE11to_int_typeB8ue170006Ec, symObjAddr: 0x21D8, symBinAddr: 0x100005648, symSize: 0x14 }
  - { offsetInCU: 0xB741, offset: 0xB741, size: 0x8, addend: 0x0, symName: __Z7isasciii, symObjAddr: 0x21EC, symBinAddr: 0x10000565C, symSize: 0x24 }
  - { offsetInCU: 0xB76E, offset: 0xB76E, size: 0x8, addend: 0x0, symName: __ZNKSt3__18ios_base10exceptionsB8ue170006Ev, symObjAddr: 0x2210, symBinAddr: 0x100005680, symSize: 0x18 }
  - { offsetInCU: 0xB796, offset: 0xB796, size: 0x8, addend: 0x0, symName: __ZNSt3__16vectorI4MoveNS_9allocatorIS1_EEED2B8ue170006Ev, symObjAddr: 0x2228, symBinAddr: 0x100005698, symSize: 0x44 }
  - { offsetInCU: 0xB7C0, offset: 0xB7C0, size: 0x8, addend: 0x0, symName: __ZNSt3__16vectorI4MoveNS_9allocatorIS1_EEE16__destroy_vectorC1B8ue170006ERS4_, symObjAddr: 0x226C, symBinAddr: 0x1000056DC, symSize: 0x34 }
  - { offsetInCU: 0xB7F9, offset: 0xB7F9, size: 0x8, addend: 0x0, symName: __ZNSt3__16vectorI4MoveNS_9allocatorIS1_EEE16__destroy_vectorclB8ue170006Ev, symObjAddr: 0x22A0, symBinAddr: 0x100005710, symSize: 0x90 }
  - { offsetInCU: 0xB81F, offset: 0xB81F, size: 0x8, addend: 0x0, symName: __ZNSt3__16vectorI4MoveNS_9allocatorIS1_EEE16__destroy_vectorC2B8ue170006ERS4_, symObjAddr: 0x2330, symBinAddr: 0x1000057A0, symSize: 0x20 }
  - { offsetInCU: 0xB858, offset: 0xB858, size: 0x8, addend: 0x0, symName: __ZNSt3__16vectorI4MoveNS_9allocatorIS1_EEE7__clearB8ue170006Ev, symObjAddr: 0x2350, symBinAddr: 0x1000057C0, symSize: 0x28 }
  - { offsetInCU: 0xB87E, offset: 0xB87E, size: 0x8, addend: 0x0, symName: __ZNKSt3__16vectorI4MoveNS_9allocatorIS1_EEE17__annotate_deleteB8ue170006Ev, symObjAddr: 0x2378, symBinAddr: 0x1000057E8, symSize: 0xD4 }
  - { offsetInCU: 0xB8A4, offset: 0xB8A4, size: 0x8, addend: 0x0, symName: __ZNSt3__116allocator_traitsINS_9allocatorI4MoveEEE10deallocateB8ue170006ERS3_PS2_m, symObjAddr: 0x244C, symBinAddr: 0x1000058BC, symSize: 0x34 }
  - { offsetInCU: 0xB8E6, offset: 0xB8E6, size: 0x8, addend: 0x0, symName: __ZNSt3__16vectorI4MoveNS_9allocatorIS1_EEE7__allocB8ue170006Ev, symObjAddr: 0x2480, symBinAddr: 0x1000058F0, symSize: 0x28 }
  - { offsetInCU: 0xB90C, offset: 0xB90C, size: 0x8, addend: 0x0, symName: __ZNKSt3__16vectorI4MoveNS_9allocatorIS1_EEE8capacityB8ue170006Ev, symObjAddr: 0x24A8, symBinAddr: 0x100005918, symSize: 0x40 }
  - { offsetInCU: 0xB932, offset: 0xB932, size: 0x8, addend: 0x0, symName: __ZNSt3__16vectorI4MoveNS_9allocatorIS1_EEE22__base_destruct_at_endB8ue170006EPS1_, symObjAddr: 0x24E8, symBinAddr: 0x100005958, symSize: 0x8C }
  - { offsetInCU: 0xB976, offset: 0xB976, size: 0x8, addend: 0x0, symName: __ZNSt3__116allocator_traitsINS_9allocatorI4MoveEEE7destroyB8ue170006IS2_vEEvRS3_PT_, symObjAddr: 0x2574, symBinAddr: 0x1000059E4, symSize: 0x2C }
  - { offsetInCU: 0xB9B3, offset: 0xB9B3, size: 0x8, addend: 0x0, symName: __ZNSt3__19allocatorI4MoveE7destroyB8ue170006EPS1_, symObjAddr: 0x25B4, symBinAddr: 0x100005A24, symSize: 0x14 }
  - { offsetInCU: 0xB9E7, offset: 0xB9E7, size: 0x8, addend: 0x0, symName: __ZNKSt3__16vectorI4MoveNS_9allocatorIS1_EEE31__annotate_contiguous_containerB8ue170006EPKvS6_S6_S6_, symObjAddr: 0x25C8, symBinAddr: 0x100005A38, symSize: 0x20 }
  - { offsetInCU: 0xBA3D, offset: 0xBA3D, size: 0x8, addend: 0x0, symName: __ZNKSt3__16vectorI4MoveNS_9allocatorIS1_EEE4dataB8ue170006Ev, symObjAddr: 0x25E8, symBinAddr: 0x100005A58, symSize: 0x28 }
  - { offsetInCU: 0xBA63, offset: 0xBA63, size: 0x8, addend: 0x0, symName: __ZNKSt3__16vectorI4MoveNS_9allocatorIS1_EEE4sizeB8ue170006Ev, symObjAddr: 0x2610, symBinAddr: 0x100005A80, symSize: 0x28 }
  - { offsetInCU: 0xBA89, offset: 0xBA89, size: 0x8, addend: 0x0, symName: __ZNSt3__19allocatorI4MoveE10deallocateB8ue170006EPS1_m, symObjAddr: 0x2638, symBinAddr: 0x100005AA8, symSize: 0x44 }
  - { offsetInCU: 0xBACB, offset: 0xBACB, size: 0x8, addend: 0x0, symName: __ZNSt3__117__compressed_pairIP4MoveNS_9allocatorIS1_EEE6secondB8ue170006Ev, symObjAddr: 0x27A4, symBinAddr: 0x100005C14, symSize: 0x24 }
  - { offsetInCU: 0xBAF1, offset: 0xBAF1, size: 0x8, addend: 0x0, symName: __ZNSt3__122__compressed_pair_elemINS_9allocatorI4MoveEELi1ELb1EE5__getB8ue170006Ev, symObjAddr: 0x27C8, symBinAddr: 0x100005C38, symSize: 0x14 }
  - { offsetInCU: 0xBB17, offset: 0xBB17, size: 0x8, addend: 0x0, symName: __ZNKSt3__16vectorI4MoveNS_9allocatorIS1_EEE9__end_capB8ue170006Ev, symObjAddr: 0x27DC, symBinAddr: 0x100005C4C, symSize: 0x28 }
  - { offsetInCU: 0xBB3D, offset: 0xBB3D, size: 0x8, addend: 0x0, symName: __ZNKSt3__117__compressed_pairIP4MoveNS_9allocatorIS1_EEE5firstB8ue170006Ev, symObjAddr: 0x2804, symBinAddr: 0x100005C74, symSize: 0x24 }
  - { offsetInCU: 0xBB63, offset: 0xBB63, size: 0x8, addend: 0x0, symName: __ZNKSt3__122__compressed_pair_elemIP4MoveLi0ELb0EE5__getB8ue170006Ev, symObjAddr: 0x2828, symBinAddr: 0x100005C98, symSize: 0x14 }
  - { offsetInCU: 0xBB89, offset: 0xBB89, size: 0x8, addend: 0x0, symName: __ZNSt3__16vectorI4MoveNS_9allocatorIS1_EEE11__make_iterB8ue170006EPS1_, symObjAddr: 0x283C, symBinAddr: 0x100005CAC, symSize: 0x30 }
  - { offsetInCU: 0xBBBE, offset: 0xBBBE, size: 0x8, addend: 0x0, symName: __ZNSt3__111__wrap_iterIP4MoveEC1B8ue170006ES2_, symObjAddr: 0x286C, symBinAddr: 0x100005CDC, symSize: 0x34 }
  - { offsetInCU: 0xBBF6, offset: 0xBBF6, size: 0x8, addend: 0x0, symName: __ZNSt3__111__wrap_iterIP4MoveEC2B8ue170006ES2_, symObjAddr: 0x28A0, symBinAddr: 0x100005D10, symSize: 0x20 }
  - { offsetInCU: 0xBC2E, offset: 0xBC2E, size: 0x8, addend: 0x0, symName: __ZNSt3__118__unwrap_iter_implINS_11__wrap_iterIP4MoveEELb1EE8__rewrapB8ue170006ES4_S3_, symObjAddr: 0x29B4, symBinAddr: 0x100005E24, symSize: 0x5C }
  - { offsetInCU: 0xBC5F, offset: 0xBC5F, size: 0x8, addend: 0x0, symName: __ZNKSt3__111__wrap_iterIP4MoveEplB8ue170006El, symObjAddr: 0x2A10, symBinAddr: 0x100005E80, symSize: 0x3C }
  - { offsetInCU: 0xBCA1, offset: 0xBCA1, size: 0x8, addend: 0x0, symName: __ZNSt3__111__wrap_iterIP4MoveEpLB8ue170006El, symObjAddr: 0x2A70, symBinAddr: 0x100005EE0, symSize: 0x30 }
  - { offsetInCU: 0xBCDF, offset: 0xBCDF, size: 0x8, addend: 0x0, symName: __ZNSt3__119__to_address_helperINS_11__wrap_iterIP4MoveEEvE6__callB8ue170006ERKS4_, symObjAddr: 0x2AA0, symBinAddr: 0x100005F10, symSize: 0x30 }
  - { offsetInCU: 0xBD02, offset: 0xBD02, size: 0x8, addend: 0x0, symName: __ZNSt3__114pointer_traitsINS_11__wrap_iterIP4MoveEEE10to_addressB8ue170006ES4_, symObjAddr: 0x2AD0, symBinAddr: 0x100005F40, symSize: 0x2C }
  - { offsetInCU: 0xBD25, offset: 0xBD25, size: 0x8, addend: 0x0, symName: __ZNK4MoveeqERKS_, symObjAddr: 0x2B28, symBinAddr: 0x100005F98, symSize: 0xB8 }
  - { offsetInCU: 0xBD63, offset: 0xBD63, size: 0x8, addend: 0x0, symName: __ZNKSt3__110__identityclB8ue170006IR4MoveEEOT_S5_, symObjAddr: 0x2BE0, symBinAddr: 0x100006050, symSize: 0x18 }
  - { offsetInCU: 0xBDA0, offset: 0xBDA0, size: 0x8, addend: 0x0, symName: __ZNSt3__118__unwrap_iter_implINS_11__wrap_iterIP4MoveEELb1EE8__unwrapB8ue170006ES4_, symObjAddr: 0x2BF8, symBinAddr: 0x100006068, symSize: 0x28 }
  - { offsetInCU: 0xBDC3, offset: 0xBDC3, size: 0x8, addend: 0x0, symName: __ZNKSt3__112basic_stringIcNS_11char_traitsIcEENS_9allocatorIcEEE4dataB8ue170006Ev, symObjAddr: 0x2C20, symBinAddr: 0x100006090, symSize: 0x28 }
  - { offsetInCU: 0xBDE9, offset: 0xBDE9, size: 0x8, addend: 0x0, symName: __ZNKSt3__112basic_stringIcNS_11char_traitsIcEENS_9allocatorIcEEE13__get_pointerB8ue170006Ev, symObjAddr: 0x2C5C, symBinAddr: 0x1000060CC, symSize: 0x54 }
  - { offsetInCU: 0xBE0F, offset: 0xBE0F, size: 0x8, addend: 0x0, symName: __ZNKSt3__112basic_stringIcNS_11char_traitsIcEENS_9allocatorIcEEE18__get_long_pointerB8ue170006Ev, symObjAddr: 0x2CB0, symBinAddr: 0x100006120, symSize: 0x28 }
  - { offsetInCU: 0xBE35, offset: 0xBE35, size: 0x8, addend: 0x0, symName: __ZNKSt3__112basic_stringIcNS_11char_traitsIcEENS_9allocatorIcEEE19__get_short_pointerB8ue170006Ev, symObjAddr: 0x2CD8, symBinAddr: 0x100006148, symSize: 0x28 }
  - { offsetInCU: 0xBE5B, offset: 0xBE5B, size: 0x8, addend: 0x0, symName: __ZNSt3__114pointer_traitsIPKcE10pointer_toB8ue170006ERS1_, symObjAddr: 0x2D00, symBinAddr: 0x100006170, symSize: 0x14 }
  - { offsetInCU: 0x4B3D, offset: 0x10A64, size: 0x8, addend: 0x0, symName: __ZNSt3__17advanceB8ue170006INS_11__wrap_iterIP4MoveEEllvEEvRT_T0_, symObjAddr: 0x84F4, symBinAddr: 0x10000D014, symSize: 0x38 }
  - { offsetInCU: 0x57B7, offset: 0x116DE, size: 0x8, addend: 0x0, symName: __ZNSt3__1plB8ue170006IcNS_11char_traitsIcEENS_9allocatorIcEEEENS_12basic_stringIT_T0_T1_EEOS9_SA_, symObjAddr: 0x9D0, symBinAddr: 0x100006B20, symSize: 0x40 }
  - { offsetInCU: 0x582E, offset: 0x11755, size: 0x8, addend: 0x0, symName: __ZNSt3__1neB8ue170006IP4MoveEEbRKNS_11__wrap_iterIT_EES7_, symObjAddr: 0x3E70, symBinAddr: 0x100009DBC, symSize: 0x34 }
  - { offsetInCU: 0x5871, offset: 0x11798, size: 0x8, addend: 0x0, symName: __ZNSt3__122__make_exception_guardB8ue170006INS_6vectorINS_12basic_stringIcNS_11char_traitsIcEENS_9allocatorIcEEEENS5_IS7_EEE16__destroy_vectorEEENS_28__exception_guard_exceptionsIT_EESC_, symObjAddr: 0x4E74, symBinAddr: 0x10000A800, symSize: 0x40 }
  - { offsetInCU: 0x58A6, offset: 0x117CD, size: 0x8, addend: 0x0, symName: __ZNSt3__119__allocate_at_leastB8ue170006INS_9allocatorINS_12basic_stringIcNS_11char_traitsIcEENS1_IcEEEEEEEENS_19__allocation_resultINS_16allocator_traitsIT_E7pointerEEERSA_m, symObjAddr: 0x5270, symBinAddr: 0x10000ABFC, symSize: 0x40 }
  - { offsetInCU: 0x58E9, offset: 0x11810, size: 0x8, addend: 0x0, symName: __ZNSt3__13minB8ue170006ImEERKT_S3_S3_, symObjAddr: 0x53C8, symBinAddr: 0x10000AD54, symSize: 0x2C }
  - { offsetInCU: 0x592C, offset: 0x11853, size: 0x8, addend: 0x0, symName: __ZNSt3__13minB8ue170006ImNS_6__lessIvvEEEERKT_S5_S5_T0_, symObjAddr: 0x5454, symBinAddr: 0x10000ADCC, symSize: 0x54 }
  - { offsetInCU: 0x59CD, offset: 0x118F4, size: 0x8, addend: 0x0, symName: __ZNSt3__120__throw_length_errorB8ue170006EPKc, symObjAddr: 0x5534, symBinAddr: 0x10000AEA4, symSize: 0x64 }
  - { offsetInCU: 0x59F8, offset: 0x1191F, size: 0x8, addend: 0x0, symName: __ZNSt3__117__libcpp_allocateB8ue170006Emm, symObjAddr: 0x56A8, symBinAddr: 0x10000B018, symSize: 0x60 }
  - { offsetInCU: 0x5A52, offset: 0x11979, size: 0x8, addend: 0x0, symName: __ZNSt3__121__libcpp_operator_newB8ue170006IJmSt11align_val_tEEEPvDpT_, symObjAddr: 0x5728, symBinAddr: 0x10000B078, symSize: 0x2C }
  - { offsetInCU: 0x5A9F, offset: 0x119C6, size: 0x8, addend: 0x0, symName: __ZNSt3__121__libcpp_operator_newB8ue170006IJmEEEPvDpT_, symObjAddr: 0x5754, symBinAddr: 0x10000B0A4, symSize: 0x24 }
  - { offsetInCU: 0x5AD8, offset: 0x119FF, size: 0x8, addend: 0x0, symName: __ZNSt3__112__to_addressB8ue170006INS_12basic_stringIcNS_11char_traitsIcEENS_9allocatorIcEEEEEEPT_S8_, symObjAddr: 0x5870, symBinAddr: 0x10000B1C0, symSize: 0x14 }
  - { offsetInCU: 0x5B0D, offset: 0x11A34, size: 0x8, addend: 0x0, symName: __ZNSt3__13maxB8ue170006ImEERKT_S3_S3_, symObjAddr: 0x7264, symBinAddr: 0x10000BE08, symSize: 0x2C }
  - { offsetInCU: 0x5B50, offset: 0x11A77, size: 0x8, addend: 0x0, symName: __ZNSt3__13maxB8ue170006ImNS_6__lessIvvEEEERKT_S5_S5_T0_, symObjAddr: 0x732C, symBinAddr: 0x10000BED0, symSize: 0x54 }
  - { offsetInCU: 0x5BAA, offset: 0x11AD1, size: 0x8, addend: 0x0, symName: __ZNSt3__119__allocate_at_leastB8ue170006INS_9allocatorI4MoveEEEENS_19__allocation_resultINS_16allocator_traitsIT_E7pointerEEERS6_m, symObjAddr: 0x749C, symBinAddr: 0x10000C040, symSize: 0x40 }
  - { offsetInCU: 0x5BED, offset: 0x11B14, size: 0x8, addend: 0x0, symName: __ZNSt3__142__uninitialized_allocator_move_if_noexceptB8ue170006INS_9allocatorI4MoveEENS_16reverse_iteratorIPS2_EES6_S2_vEET1_RT_T0_SA_S7_, symObjAddr: 0x7654, symBinAddr: 0x10000C1F8, symSize: 0x78 }
  - { offsetInCU: 0x5C6B, offset: 0x11B92, size: 0x8, addend: 0x0, symName: __ZNSt3__14swapB8ue170006IP4MoveEENS_9enable_ifIXaasr21is_move_constructibleIT_EE5valuesr18is_move_assignableIS4_EE5valueEvE4typeERS4_S7_, symObjAddr: 0x7718, symBinAddr: 0x10000C2BC, symSize: 0x3C }
  - { offsetInCU: 0x5CBC, offset: 0x11BE3, size: 0x8, addend: 0x0, symName: __ZNSt3__14moveB8ue170006INS_16reverse_iteratorIP4MoveEES4_EET0_T_S6_S5_, symObjAddr: 0x781C, symBinAddr: 0x10000C3C0, symSize: 0x78 }
  - { offsetInCU: 0x5D16, offset: 0x11C3D, size: 0x8, addend: 0x0, symName: __ZNSt3__16__moveB8ue170006INS_17_ClassicAlgPolicyENS_16reverse_iteratorIP4MoveEES5_S5_EENS_4pairIT0_T2_EES7_T1_S8_, symObjAddr: 0x7894, symBinAddr: 0x10000C438, symSize: 0x64 }
  - { offsetInCU: 0x5D82, offset: 0x11CA9, size: 0x8, addend: 0x0, symName: __ZNSt3__123__dispatch_copy_or_moveB8ue170006INS_17_ClassicAlgPolicyENS_11__move_loopIS1_EENS_14__move_trivialENS_16reverse_iteratorIP4MoveEES8_S8_EENS_4pairIT2_T4_EESA_T3_SB_, symObjAddr: 0x78F8, symBinAddr: 0x10000C49C, symSize: 0x64 }
  - { offsetInCU: 0x5E00, offset: 0x11D27, size: 0x8, addend: 0x0, symName: __ZNSt3__121__unwrap_and_dispatchB8ue170006INS_10__overloadINS_11__move_loopINS_17_ClassicAlgPolicyEEENS_14__move_trivialEEENS_16reverse_iteratorIP4MoveEESA_SA_Li0EEENS_4pairIT0_T2_EESC_T1_SD_, symObjAddr: 0x795C, symBinAddr: 0x10000C500, symSize: 0x12C }
  - { offsetInCU: 0x5E90, offset: 0x11DB7, size: 0x8, addend: 0x0, symName: __ZNSt3__114__unwrap_rangeB8ue170006INS_16reverse_iteratorIP4MoveEES4_EENS_4pairIT0_S6_EET_S8_, symObjAddr: 0x7A88, symBinAddr: 0x10000C62C, symSize: 0x84 }
  - { offsetInCU: 0x600C, offset: 0x11F33, size: 0x8, addend: 0x0, symName: __ZNSt3__113__unwrap_iterB8ue170006INS_16reverse_iteratorIP4MoveEENS_18__unwrap_iter_implIS4_Lb0EEELi0EEEDTclsrT0_8__unwrapclsr3stdE7declvalIT_EEEES8_, symObjAddr: 0x7BB4, symBinAddr: 0x10000C758, symSize: 0x44 }
  - { offsetInCU: 0x6050, offset: 0x11F77, size: 0x8, addend: 0x0, symName: __ZNSt3__19make_pairB8ue170006INS_16reverse_iteratorIP4MoveEES4_EENS_4pairINS_18__unwrap_ref_decayIT_E4typeENS6_IT0_E4typeEEEOS7_OSA_, symObjAddr: 0x7BF8, symBinAddr: 0x10000C79C, symSize: 0x38 }
  - { offsetInCU: 0x609F, offset: 0x11FC6, size: 0x8, addend: 0x0, symName: __ZNSt3__114__rewrap_rangeB8ue170006INS_16reverse_iteratorIP4MoveEES4_EET_S5_T0_, symObjAddr: 0x7C30, symBinAddr: 0x10000C7D4, symSize: 0x5C }
  - { offsetInCU: 0x60EB, offset: 0x12012, size: 0x8, addend: 0x0, symName: __ZNSt3__113__rewrap_iterB8ue170006INS_16reverse_iteratorIP4MoveEES4_NS_18__unwrap_iter_implIS4_Lb0EEEEET_S7_T0_, symObjAddr: 0x7C8C, symBinAddr: 0x10000C830, symSize: 0x74 }
  - { offsetInCU: 0x6140, offset: 0x12067, size: 0x8, addend: 0x0, symName: __ZNSt3__1neB8ue170006IP4MoveS2_EEbRKNS_16reverse_iteratorIT_EERKNS3_IT0_EE, symObjAddr: 0x7D00, symBinAddr: 0x10000C8A4, symSize: 0x48 }
  - { offsetInCU: 0x623F, offset: 0x12166, size: 0x8, addend: 0x0, symName: __ZNSt3__18distanceB8ue170006INS_11__wrap_iterIP4MoveEEEENS_15iterator_traitsIT_E15difference_typeES6_S6_, symObjAddr: 0x8434, symBinAddr: 0x10000CF54, symSize: 0x3C }
  - { offsetInCU: 0x6282, offset: 0x121A9, size: 0x8, addend: 0x0, symName: __ZNSt3__1miB8ue170006IPK4MovePS1_EEDTmicldtfp_4baseEcldtfp0_4baseEERKNS_11__wrap_iterIT_EERKNS6_IT0_EE, symObjAddr: 0x8470, symBinAddr: 0x10000CF90, symSize: 0x48 }
  - { offsetInCU: 0x62CE, offset: 0x121F5, size: 0x8, addend: 0x0, symName: __ZNSt3__14nextB8ue170006INS_11__wrap_iterIP4MoveEEEENS_9enable_ifIXsr29__has_input_iterator_categoryIT_EE5valueES6_E4typeES6_NS_15iterator_traitsIS6_E15difference_typeE, symObjAddr: 0x84B8, symBinAddr: 0x10000CFD8, symSize: 0x3C }
  - { offsetInCU: 0x6311, offset: 0x12238, size: 0x8, addend: 0x0, symName: __ZNSt3__14copyB8ue170006INS_11__wrap_iterIP4MoveEES3_EET0_T_S6_S5_, symObjAddr: 0x8704, symBinAddr: 0x10000D224, symSize: 0x50 }
  - { offsetInCU: 0x636B, offset: 0x12292, size: 0x8, addend: 0x0, symName: __ZNSt3__121__convert_to_integralB8ue170006El, symObjAddr: 0x8988, symBinAddr: 0x10000D4A8, symSize: 0x14 }
  - { offsetInCU: 0x6397, offset: 0x122BE, size: 0x8, addend: 0x0, symName: __ZNSt3__19__advanceB8ue170006INS_11__wrap_iterIP4MoveEEEEvRT_NS_15iterator_traitsIS5_E15difference_typeENS_26random_access_iterator_tagE, symObjAddr: 0x899C, symBinAddr: 0x10000D4BC, symSize: 0x2C }
  - { offsetInCU: 0x63E2, offset: 0x12309, size: 0x8, addend: 0x0, symName: __ZNSt3__130__uninitialized_allocator_copyB8ue170006INS_9allocatorI4MoveEENS_11__wrap_iterIPS2_EES6_S5_EET2_RT_T0_T1_S7_, symObjAddr: 0x89F8, symBinAddr: 0x10000D4E8, symSize: 0x90 }
  - { offsetInCU: 0x647F, offset: 0x123A6, size: 0x8, addend: 0x0, symName: __ZNSt3__114__unwrap_rangeB8ue170006INS_11__wrap_iterIP4MoveEES3_EENS_4pairIT0_S6_EET_S8_, symObjAddr: 0x8A88, symBinAddr: 0x10000D578, symSize: 0x70 }
  - { offsetInCU: 0x64CB, offset: 0x123F2, size: 0x8, addend: 0x0, symName: __ZNSt3__135__uninitialized_allocator_copy_implB8ue170006INS_9allocatorI4MoveEES2_S2_S2_LPv0EEEPT2_RT_PT0_SA_S6_, symObjAddr: 0x8AF8, symBinAddr: 0x10000D5E8, symSize: 0x38 }
  - { offsetInCU: 0x654E, offset: 0x12475, size: 0x8, addend: 0x0, symName: __ZNSt3__113__unwrap_iterB8ue170006IP4MoveNS_18__unwrap_iter_implIS2_Lb1EEELi0EEEDTclsrT0_8__unwrapclsr3stdE7declvalIT_EEEES6_, symObjAddr: 0x8B30, symBinAddr: 0x10000D620, symSize: 0x24 }
  - { offsetInCU: 0x6592, offset: 0x124B9, size: 0x8, addend: 0x0, symName: __ZNSt3__113__rewrap_iterB8ue170006IP4MoveS2_NS_18__unwrap_iter_implIS2_Lb1EEEEET_S5_T0_, symObjAddr: 0x8B54, symBinAddr: 0x10000D644, symSize: 0x3C }
  - { offsetInCU: 0x65E7, offset: 0x1250E, size: 0x8, addend: 0x0, symName: __ZNSt3__19make_pairB8ue170006IP4MoveS2_EENS_4pairINS_18__unwrap_ref_decayIT_E4typeENS4_IT0_E4typeEEEOS5_OS8_, symObjAddr: 0x8B90, symBinAddr: 0x10000D680, symSize: 0x38 }
  - { offsetInCU: 0x676B, offset: 0x12692, size: 0x8, addend: 0x0, symName: __ZNSt3__14copyB8ue170006IP4MoveS2_EET0_T_S4_S3_, symObjAddr: 0x8D0C, symBinAddr: 0x10000D728, symSize: 0x40 }
  - { offsetInCU: 0x67C5, offset: 0x126EC, size: 0x8, addend: 0x0, symName: __ZNSt3__16__copyB8ue170006INS_17_ClassicAlgPolicyEP4MoveS3_S3_EENS_4pairIT0_T2_EES5_T1_S6_, symObjAddr: 0x8D4C, symBinAddr: 0x10000D768, symSize: 0x44 }
  - { offsetInCU: 0x6831, offset: 0x12758, size: 0x8, addend: 0x0, symName: __ZNSt3__123__dispatch_copy_or_moveB8ue170006INS_17_ClassicAlgPolicyENS_11__copy_loopIS1_EENS_14__copy_trivialEP4MoveS6_S6_EENS_4pairIT2_T4_EES8_T3_S9_, symObjAddr: 0x8D90, symBinAddr: 0x10000D7AC, symSize: 0x44 }
  - { offsetInCU: 0x68AF, offset: 0x127D6, size: 0x8, addend: 0x0, symName: __ZNSt3__121__unwrap_and_dispatchB8ue170006INS_10__overloadINS_11__copy_loopINS_17_ClassicAlgPolicyEEENS_14__copy_trivialEEEP4MoveS8_S8_Li0EEENS_4pairIT0_T2_EESA_T1_SB_, symObjAddr: 0x8DD4, symBinAddr: 0x10000D7F0, symSize: 0xB4 }
  - { offsetInCU: 0x693D, offset: 0x12864, size: 0x8, addend: 0x0, symName: __ZNSt3__114__unwrap_rangeB8ue170006IP4MoveS2_EENS_4pairIT0_S4_EET_S6_, symObjAddr: 0x8E88, symBinAddr: 0x10000D8A4, symSize: 0x60 }
  - { offsetInCU: 0x69CF, offset: 0x128F6, size: 0x8, addend: 0x0, symName: __ZNSt3__114__rewrap_rangeB8ue170006IP4MoveS2_EET_S3_T0_, symObjAddr: 0x8F30, symBinAddr: 0x10000D94C, symSize: 0x2C }
  - { offsetInCU: 0x6A1B, offset: 0x12942, size: 0x8, addend: 0x0, symName: __ZNSt3__119__copy_trivial_implB8ue170006I4MoveS1_EENS_4pairIPT_PT0_EES4_S4_S6_, symObjAddr: 0x8F5C, symBinAddr: 0x10000D978, symSize: 0x88 }
  - { offsetInCU: 0x6A83, offset: 0x129AA, size: 0x8, addend: 0x0, symName: __ZNSt3__119__constexpr_memmoveB8ue170006I4MoveS1_Li0EEEPT_S3_PT0_NS_15__element_countE, symObjAddr: 0x8FE4, symBinAddr: 0x10000DA00, symSize: 0x68 }
  - { offsetInCU: 0x6AF1, offset: 0x12A18, size: 0x8, addend: 0x0, symName: __ZNSt3__19make_pairB8ue170006IRP4MoveS2_EENS_4pairINS_18__unwrap_ref_decayIT_E4typeENS5_IT0_E4typeEEEOS6_OS9_, symObjAddr: 0x904C, symBinAddr: 0x10000DA68, symSize: 0x38 }
  - { offsetInCU: 0x6B93, offset: 0x12ABA, size: 0x8, addend: 0x0, symName: __ZNSt3__113move_backwardB8ue170006IP4MoveS2_EET0_T_S4_S3_, symObjAddr: 0x9170, symBinAddr: 0x10000DB8C, symSize: 0x40 }
  - { offsetInCU: 0x6BED, offset: 0x12B14, size: 0x8, addend: 0x0, symName: __ZNSt3__115__move_backwardB8ue170006INS_17_ClassicAlgPolicyEP4MoveS3_S3_EENS_4pairIT0_T2_EES5_T1_S6_, symObjAddr: 0x91B0, symBinAddr: 0x10000DBCC, symSize: 0x44 }
  - { offsetInCU: 0x6C59, offset: 0x12B80, size: 0x8, addend: 0x0, symName: __ZNSt3__123__dispatch_copy_or_moveB8ue170006INS_17_ClassicAlgPolicyENS_20__move_backward_loopIS1_EENS_23__move_backward_trivialEP4MoveS6_S6_EENS_4pairIT2_T4_EES8_T3_S9_, symObjAddr: 0x91F4, symBinAddr: 0x10000DC10, symSize: 0x44 }
  - { offsetInCU: 0x6CD7, offset: 0x12BFE, size: 0x8, addend: 0x0, symName: __ZNSt3__121__unwrap_and_dispatchB8ue170006INS_10__overloadINS_20__move_backward_loopINS_17_ClassicAlgPolicyEEENS_23__move_backward_trivialEEEP4MoveS8_S8_Li0EEENS_4pairIT0_T2_EESA_T1_SB_, symObjAddr: 0x9238, symBinAddr: 0x10000DC54, symSize: 0xB4 }
  - { offsetInCU: 0x6DAB, offset: 0x12CD2, size: 0x8, addend: 0x0, symName: __ZNSt3__128__copy_backward_trivial_implB8ue170006I4MoveS1_EENS_4pairIPT_PT0_EES4_S4_S6_, symObjAddr: 0x9334, symBinAddr: 0x10000DD50, symSize: 0x90 }
  - { offsetInCU: 0x6E13, offset: 0x12D3A, size: 0x8, addend: 0x0, symName: __ZNSt3__19make_pairB8ue170006IRP4MoveS3_EENS_4pairINS_18__unwrap_ref_decayIT_E4typeENS5_IT0_E4typeEEEOS6_OS9_, symObjAddr: 0x93C4, symBinAddr: 0x10000DDE0, symSize: 0x38 }
  - { offsetInCU: 0x6E62, offset: 0x12D89, size: 0x8, addend: 0x0, symName: __ZNSt3__16__copyB8ue170006INS_17_ClassicAlgPolicyENS_11__wrap_iterIP4MoveEES5_S4_EENS_4pairIT0_T2_EES7_T1_S8_, symObjAddr: 0x946C, symBinAddr: 0x10000DE88, symSize: 0x54 }
  - { offsetInCU: 0x6ECE, offset: 0x12DF5, size: 0x8, addend: 0x0, symName: __ZNSt3__123__dispatch_copy_or_moveB8ue170006INS_17_ClassicAlgPolicyENS_11__copy_loopIS1_EENS_14__copy_trivialENS_11__wrap_iterIP4MoveEES8_S7_EENS_4pairIT2_T4_EESA_T3_SB_, symObjAddr: 0x94C0, symBinAddr: 0x10000DEDC, symSize: 0x54 }
  - { offsetInCU: 0x6F4C, offset: 0x12E73, size: 0x8, addend: 0x0, symName: __ZNSt3__121__unwrap_and_dispatchB8ue170006INS_10__overloadINS_11__copy_loopINS_17_ClassicAlgPolicyEEENS_14__copy_trivialEEENS_11__wrap_iterIP4MoveEESA_S9_Li0EEENS_4pairIT0_T2_EESC_T1_SD_, symObjAddr: 0x9514, symBinAddr: 0x10000DF30, symSize: 0xCC }
  - { offsetInCU: 0x6FDA, offset: 0x12F01, size: 0x8, addend: 0x0, symName: __ZNSt3__19make_pairB8ue170006INS_11__wrap_iterIP4MoveEES3_EENS_4pairINS_18__unwrap_ref_decayIT_E4typeENS6_IT0_E4typeEEEOS7_OSA_, symObjAddr: 0x95E0, symBinAddr: 0x10000DFFC, symSize: 0x38 }
  - { offsetInCU: 0x7029, offset: 0x12F50, size: 0x8, addend: 0x0, symName: __ZNSt3__114__rewrap_rangeB8ue170006INS_11__wrap_iterIP4MoveEES3_EET_S5_T0_, symObjAddr: 0x9618, symBinAddr: 0x10000E034, symSize: 0x3C }
  - { offsetInCU: 0x714A, offset: 0x13071, size: 0x8, addend: 0x0, symName: __ZNSt3__142__uninitialized_allocator_move_if_noexceptB8ue170006INS_9allocatorI4MoveEEPS2_S4_S2_vEET1_RT_T0_S8_S5_, symObjAddr: 0x98E0, symBinAddr: 0x10000E218, symSize: 0x38 }
  - { offsetInCU: 0x71C7, offset: 0x130EE, size: 0x8, addend: 0x0, symName: __ZNSt3__14moveB8ue170006IP4MoveS2_EET0_T_S4_S3_, symObjAddr: 0x9918, symBinAddr: 0x10000E250, symSize: 0x40 }
  - { offsetInCU: 0x7221, offset: 0x13148, size: 0x8, addend: 0x0, symName: __ZNSt3__16__moveB8ue170006INS_17_ClassicAlgPolicyEP4MoveS3_S3_EENS_4pairIT0_T2_EES5_T1_S6_, symObjAddr: 0x9958, symBinAddr: 0x10000E290, symSize: 0x44 }
  - { offsetInCU: 0x728D, offset: 0x131B4, size: 0x8, addend: 0x0, symName: __ZNSt3__123__dispatch_copy_or_moveB8ue170006INS_17_ClassicAlgPolicyENS_11__move_loopIS1_EENS_14__move_trivialEP4MoveS6_S6_EENS_4pairIT2_T4_EES8_T3_S9_, symObjAddr: 0x999C, symBinAddr: 0x10000E2D4, symSize: 0x44 }
  - { offsetInCU: 0x730B, offset: 0x13232, size: 0x8, addend: 0x0, symName: __ZNSt3__121__unwrap_and_dispatchB8ue170006INS_10__overloadINS_11__move_loopINS_17_ClassicAlgPolicyEEENS_14__move_trivialEEEP4MoveS8_S8_Li0EEENS_4pairIT0_T2_EESA_T1_SB_, symObjAddr: 0x99E0, symBinAddr: 0x10000E318, symSize: 0xB4 }
  - { offsetInCU: 0x73DF, offset: 0x13306, size: 0x8, addend: 0x0, symName: __ZNSt3__110__distanceB8ue170006INS_11__wrap_iterIP4MoveEEEENS_15iterator_traitsIT_E15difference_typeES6_S6_NS_26random_access_iterator_tagE, symObjAddr: 0x9ADC, symBinAddr: 0x10000E414, symSize: 0x30 }
  - { offsetInCU: 0x742D, offset: 0x13354, size: 0x8, addend: 0x0, symName: __ZNSt3__1miB8ue170006IP4MoveS2_EEDTmicldtfp_4baseEcldtfp0_4baseEERKNS_11__wrap_iterIT_EERKNS4_IT0_EE, symObjAddr: 0x9B0C, symBinAddr: 0x10000E444, symSize: 0x48 }
  - { offsetInCU: 0x7726, offset: 0x1364D, size: 0x8, addend: 0x0, symName: __ZSt28__throw_bad_array_new_lengthB8ue170006v, symObjAddr: 0x5674, symBinAddr: 0x10000AFE4, symSize: 0x34 }
  - { offsetInCU: 0x7B38, offset: 0x13A5F, size: 0x8, addend: 0x0, symName: __ZNSt3__16vectorI4MoveNS_9allocatorIS1_EEE26__swap_out_circular_bufferERNS_14__split_bufferIS1_RS3_EE, symObjAddr: 0x70AC, symBinAddr: 0x10000BC50, symSize: 0x110 }
  - { offsetInCU: 0x7B8F, offset: 0x13AB6, size: 0x8, addend: 0x0, symName: __ZNSt3__16vectorI4MoveNS_9allocatorIS1_EEE26__swap_out_circular_bufferERNS_14__split_bufferIS1_RS3_EEPS1_, symObjAddr: 0x8824, symBinAddr: 0x10000D344, symSize: 0x14C }
  - { offsetInCU: 0x99FC, offset: 0x15923, size: 0x8, addend: 0x0, symName: __ZN10ChessBoard5slideEyyi, symObjAddr: 0x0, symBinAddr: 0x100006184, symSize: 0x198 }
  - { offsetInCU: 0x9A6A, offset: 0x15991, size: 0x8, addend: 0x0, symName: __ZN10ChessBoard17findOpponentBoardERK4Moveb, symObjAddr: 0x198, symBinAddr: 0x10000631C, symSize: 0x338 }
  - { offsetInCU: 0x9AE6, offset: 0x15A0D, size: 0x8, addend: 0x0, symName: __ZN10ChessBoard18getPieceAtPositionEi, symObjAddr: 0x4D0, symBinAddr: 0x100006654, symSize: 0x344 }
  - { offsetInCU: 0x9B34, offset: 0x15A5B, size: 0x8, addend: 0x0, symName: __ZNSt3__14pairIcbEC1B8ue170006IcbLPv0EEEOT_OT0_, symObjAddr: 0x814, symBinAddr: 0x100006998, symSize: 0x3C }
  - { offsetInCU: 0x9B93, offset: 0x15ABA, size: 0x8, addend: 0x0, symName: __ZN10ChessBoard20indexToChessPositionEi, symObjAddr: 0x850, symBinAddr: 0x1000069D4, symSize: 0x14C }
  - { offsetInCU: 0x9BE5, offset: 0x15B0C, size: 0x8, addend: 0x0, symName: __ZN10ChessBoard20chessPositionToIndexENSt3__112basic_stringIcNS0_11char_traitsIcEENS0_9allocatorIcEEEE, symObjAddr: 0xA4C, symBinAddr: 0x100006B60, symSize: 0x180 }
  - { offsetInCU: 0x9C38, offset: 0x15B5F, size: 0x8, addend: 0x0, symName: __ZNSt3__112basic_stringIcNS_11char_traitsIcEENS_9allocatorIcEEEixB8ue170006Em, symObjAddr: 0xBF0, symBinAddr: 0x100006CE0, symSize: 0x30 }
  - { offsetInCU: 0x9C6D, offset: 0x15B94, size: 0x8, addend: 0x0, symName: __ZN10ChessBoard12displayBoardEyyyyyyyyyyyy, symObjAddr: 0xC20, symBinAddr: 0x100006D10, symSize: 0x888 }
  - { offsetInCU: 0x9DF6, offset: 0x15D1D, size: 0x8, addend: 0x0, symName: __ZNSt3__112basic_stringIcNS_11char_traitsIcEENS_9allocatorIcEEEC1B8ue170006ILi0EEEPKc, symObjAddr: 0x14A8, symBinAddr: 0x100007598, symSize: 0x34 }
  - { offsetInCU: 0x9E35, offset: 0x15D5C, size: 0x8, addend: 0x0, symName: __ZNSt3__16vectorINS_12basic_stringIcNS_11char_traitsIcEENS_9allocatorIcEEEENS4_IS6_EEEC1EmRKS6_, symObjAddr: 0x14DC, symBinAddr: 0x1000075CC, symSize: 0x3C }
  - { offsetInCU: 0x9E7F, offset: 0x15DA6, size: 0x8, addend: 0x0, symName: __ZNSt3__16vectorINS_12basic_stringIcNS_11char_traitsIcEENS_9allocatorIcEEEENS4_IS6_EEEixB8ue170006Em, symObjAddr: 0x1518, symBinAddr: 0x100007608, symSize: 0x2C }
  - { offsetInCU: 0x9EB6, offset: 0x15DDD, size: 0x8, addend: 0x0, symName: __ZNSt3__112basic_stringIcNS_11char_traitsIcEENS_9allocatorIcEEEaSB8ue170006EPKc, symObjAddr: 0x1544, symBinAddr: 0x100007634, symSize: 0x2C }
  - { offsetInCU: 0x9EEB, offset: 0x15E12, size: 0x8, addend: 0x0, symName: __ZNSt3__16vectorINS_12basic_stringIcNS_11char_traitsIcEENS_9allocatorIcEEEENS4_IS6_EEED1B8ue170006Ev, symObjAddr: 0x1688, symBinAddr: 0x100007660, symSize: 0x2C }
  - { offsetInCU: 0x9F15, offset: 0x15E3C, size: 0x8, addend: 0x0, symName: __ZN10ChessBoard12getAllPiecesEv, symObjAddr: 0x16B4, symBinAddr: 0x10000768C, symSize: 0x70 }
  - { offsetInCU: 0x9F3D, offset: 0x15E64, size: 0x8, addend: 0x0, symName: __ZN10ChessBoard11whitePiecesEv, symObjAddr: 0x1724, symBinAddr: 0x1000076FC, symSize: 0x40 }
  - { offsetInCU: 0x9F65, offset: 0x15E8C, size: 0x8, addend: 0x0, symName: __ZN10ChessBoard11blackPiecesEv, symObjAddr: 0x1764, symBinAddr: 0x10000773C, symSize: 0x40 }
  - { offsetInCU: 0x9F8D, offset: 0x15EB4, size: 0x8, addend: 0x0, symName: __ZN10ChessBoard17generatePawnMovesEb, symObjAddr: 0x17A4, symBinAddr: 0x10000777C, symSize: 0x43C }
  - { offsetInCU: 0xA071, offset: 0x15F98, size: 0x8, addend: 0x0, symName: __ZNSt3__16vectorI4MoveNS_9allocatorIS1_EEEC1B8ue170006Ev, symObjAddr: 0x1BE0, symBinAddr: 0x100007BB8, symSize: 0x2C }
  - { offsetInCU: 0xA09B, offset: 0x15FC2, size: 0x8, addend: 0x0, symName: __ZNSt3__16vectorI4MoveNS_9allocatorIS1_EEE9push_backB8ue170006EOS1_, symObjAddr: 0x1C0C, symBinAddr: 0x100007BE4, symSize: 0x6C }
  - { offsetInCU: 0xA0D2, offset: 0x15FF9, size: 0x8, addend: 0x0, symName: __ZN10ChessBoard19generateKnightMovesEb, symObjAddr: 0x1CA4, symBinAddr: 0x100007C50, symSize: 0x41C }
  - { offsetInCU: 0xA1F5, offset: 0x1611C, size: 0x8, addend: 0x0, symName: __ZN10ChessBoard19generateBishopMovesEbyy, symObjAddr: 0x20C0, symBinAddr: 0x10000806C, symSize: 0x3F4 }
  - { offsetInCU: 0xA335, offset: 0x1625C, size: 0x8, addend: 0x0, symName: __ZN10ChessBoard17generateRookMovesEbyy, symObjAddr: 0x24B4, symBinAddr: 0x100008460, symSize: 0x440 }
  - { offsetInCU: 0xA484, offset: 0x163AB, size: 0x8, addend: 0x0, symName: __ZN10ChessBoard18generateQueenMovesEbyy, symObjAddr: 0x28F4, symBinAddr: 0x1000088A0, symSize: 0x264 }
  - { offsetInCU: 0xA50A, offset: 0x16431, size: 0x8, addend: 0x0, symName: __ZNSt3__16vectorI4MoveNS_9allocatorIS1_EEE6insertINS_11__wrap_iterIPS1_EELi0EEES8_NS6_IPKS1_EET_SC_, symObjAddr: 0x2B58, symBinAddr: 0x100008B04, symSize: 0x84 }
  - { offsetInCU: 0xA578, offset: 0x1649F, size: 0x8, addend: 0x0, symName: __ZNSt3__111__wrap_iterIPK4MoveEC1B8ue170006IPS1_EERKNS0_IT_EEPNS_9enable_ifIXsr14is_convertibleIS7_S3_EE5valueEvE4typeE, symObjAddr: 0x2C0C, symBinAddr: 0x100008B88, symSize: 0x3C }
  - { offsetInCU: 0xA5C4, offset: 0x164EB, size: 0x8, addend: 0x0, symName: __ZN10ChessBoard17generateKingMovesEbyy, symObjAddr: 0x2C78, symBinAddr: 0x100008BC4, symSize: 0x470 }
  - { offsetInCU: 0xA704, offset: 0x1662B, size: 0x8, addend: 0x0, symName: __ZN10ChessBoard8makeMoveERK4Moveb, symObjAddr: 0x30E8, symBinAddr: 0x100009034, symSize: 0x398 }
  - { offsetInCU: 0xA778, offset: 0x1669F, size: 0x8, addend: 0x0, symName: __ZN10ChessBoard8undoMoveERK4MovebPy, symObjAddr: 0x34C4, symBinAddr: 0x100009410, symSize: 0x290 }
  - { offsetInCU: 0xA7EC, offset: 0x16713, size: 0x8, addend: 0x0, symName: __ZN10ChessBoard13isKingInCheckEb, symObjAddr: 0x3798, symBinAddr: 0x1000096E4, symSize: 0x6D8 }
  - { offsetInCU: 0xAAED, offset: 0x16A14, size: 0x8, addend: 0x0, symName: __ZNKSt3__111__wrap_iterIP4MoveEdeB8ue170006Ev, symObjAddr: 0x3EA4, symBinAddr: 0x100009DF0, symSize: 0x18 }
  - { offsetInCU: 0xAB13, offset: 0x16A3A, size: 0x8, addend: 0x0, symName: __ZNSt3__111__wrap_iterIP4MoveEppB8ue170006Ev, symObjAddr: 0x3EBC, symBinAddr: 0x100009E08, symSize: 0x20 }
  - { offsetInCU: 0xAB39, offset: 0x16A60, size: 0x8, addend: 0x0, symName: __ZN10ChessBoard11isCheckmateEb, symObjAddr: 0x3EDC, symBinAddr: 0x100009E28, symSize: 0xC0 }
  - { offsetInCU: 0xAB80, offset: 0x16AA7, size: 0x8, addend: 0x0, symName: __ZN10ChessBoard18generateLegalMovesEb, symObjAddr: 0x3F9C, symBinAddr: 0x100009EE8, symSize: 0x594 }
  - { offsetInCU: 0xAC93, offset: 0x16BBA, size: 0x8, addend: 0x0, symName: __ZN10ChessBoard10isGameOverEv, symObjAddr: 0x4558, symBinAddr: 0x10000A47C, symSize: 0x60 }
  - { offsetInCU: 0xACBC, offset: 0x16BE3, size: 0x8, addend: 0x0, symName: __ZNSt3__16vectorI4MoveNS_9allocatorIS1_EEE9push_backB8ue170006ERKS1_, symObjAddr: 0x45B8, symBinAddr: 0x10000A4DC, symSize: 0x6C }
  - { offsetInCU: 0xACF3, offset: 0x16C1A, size: 0x8, addend: 0x0, symName: __ZNSt3__14pairIcbEC2B8ue170006IcbLPv0EEEOT_OT0_, symObjAddr: 0x4624, symBinAddr: 0x10000A548, symSize: 0x38 }
  - { offsetInCU: 0xAD52, offset: 0x16C79, size: 0x8, addend: 0x0, symName: __ZNSt3__111__wrap_iterIPK4MoveEC2B8ue170006IPS1_EERKNS0_IT_EEPNS_9enable_ifIXsr14is_convertibleIS7_S3_EE5valueEvE4typeE, symObjAddr: 0x46A8, symBinAddr: 0x10000A580, symSize: 0x40 }
  - { offsetInCU: 0xADA3, offset: 0x16CCA, size: 0x8, addend: 0x0, symName: __ZNSt3__112basic_stringIcNS_11char_traitsIcEENS_9allocatorIcEEE6appendB8ue170006ERKS5_, symObjAddr: 0x488C, symBinAddr: 0x10000A5C0, symSize: 0x4C }
  - { offsetInCU: 0xADD8, offset: 0x16CFF, size: 0x8, addend: 0x0, symName: __ZNSt3__112basic_stringIcNS_11char_traitsIcEENS_9allocatorIcEEEC1B8ue170006EOS5_, symObjAddr: 0x48D8, symBinAddr: 0x10000A60C, symSize: 0x34 }
  - { offsetInCU: 0xAE11, offset: 0x16D38, size: 0x8, addend: 0x0, symName: __ZNSt3__112basic_stringIcNS_11char_traitsIcEENS_9allocatorIcEEEC2B8ue170006EOS5_, symObjAddr: 0x4B20, symBinAddr: 0x10000A640, symSize: 0x50 }
  - { offsetInCU: 0xAE4A, offset: 0x16D71, size: 0x8, addend: 0x0, symName: __ZNSt3__112basic_stringIcNS_11char_traitsIcEENS_9allocatorIcEEEC2B8ue170006ILi0EEEPKc, symObjAddr: 0x4CAC, symBinAddr: 0x10000A690, symSize: 0x58 }
  - { offsetInCU: 0xAE89, offset: 0x16DB0, size: 0x8, addend: 0x0, symName: __ZNSt3__16vectorINS_12basic_stringIcNS_11char_traitsIcEENS_9allocatorIcEEEENS4_IS6_EEEC2EmRKS6_, symObjAddr: 0x4D5C, symBinAddr: 0x10000A6E8, symSize: 0xDC }
  - { offsetInCU: 0xAEED, offset: 0x16E14, size: 0x8, addend: 0x0, symName: __ZNSt3__117__compressed_pairIPNS_12basic_stringIcNS_11char_traitsIcEENS_9allocatorIcEEEENS4_IS6_EEEC1B8ue170006IDnNS_18__default_init_tagEEEOT_OT0_, symObjAddr: 0x4E38, symBinAddr: 0x10000A7C4, symSize: 0x3C }
  - { offsetInCU: 0xAF45, offset: 0x16E6C, size: 0x8, addend: 0x0, symName: __ZNSt3__16vectorINS_12basic_stringIcNS_11char_traitsIcEENS_9allocatorIcEEEENS4_IS6_EEE16__destroy_vectorC1B8ue170006ERS8_, symObjAddr: 0x4EB4, symBinAddr: 0x10000A840, symSize: 0x34 }
  - { offsetInCU: 0xAF7E, offset: 0x16EA5, size: 0x8, addend: 0x0, symName: __ZNSt3__16vectorINS_12basic_stringIcNS_11char_traitsIcEENS_9allocatorIcEEEENS4_IS6_EEE11__vallocateB8ue170006Em, symObjAddr: 0x4EE8, symBinAddr: 0x10000A874, symSize: 0xB4 }
  - { offsetInCU: 0xAFC2, offset: 0x16EE9, size: 0x8, addend: 0x0, symName: __ZNSt3__16vectorINS_12basic_stringIcNS_11char_traitsIcEENS_9allocatorIcEEEENS4_IS6_EEE18__construct_at_endEmRKS6_, symObjAddr: 0x4F9C, symBinAddr: 0x10000A928, symSize: 0xD0 }
  - { offsetInCU: 0xB043, offset: 0x16F6A, size: 0x8, addend: 0x0, symName: __ZNSt3__128__exception_guard_exceptionsINS_6vectorINS_12basic_stringIcNS_11char_traitsIcEENS_9allocatorIcEEEENS5_IS7_EEE16__destroy_vectorEE10__completeB8ue170006Ev, symObjAddr: 0x506C, symBinAddr: 0x10000A9F8, symSize: 0x1C }
  - { offsetInCU: 0xB069, offset: 0x16F90, size: 0x8, addend: 0x0, symName: __ZNSt3__128__exception_guard_exceptionsINS_6vectorINS_12basic_stringIcNS_11char_traitsIcEENS_9allocatorIcEEEENS5_IS7_EEE16__destroy_vectorEED1B8ue170006Ev, symObjAddr: 0x5088, symBinAddr: 0x10000AA14, symSize: 0x2C }
  - { offsetInCU: 0xB093, offset: 0x16FBA, size: 0x8, addend: 0x0, symName: __ZNSt3__117__compressed_pairIPNS_12basic_stringIcNS_11char_traitsIcEENS_9allocatorIcEEEENS4_IS6_EEEC2B8ue170006IDnNS_18__default_init_tagEEEOT_OT0_, symObjAddr: 0x50B4, symBinAddr: 0x10000AA40, symSize: 0x40 }
  - { offsetInCU: 0xB0EB, offset: 0x17012, size: 0x8, addend: 0x0, symName: __ZNSt3__122__compressed_pair_elemIPNS_12basic_stringIcNS_11char_traitsIcEENS_9allocatorIcEEEELi0ELb0EEC2B8ue170006IDnvEEOT_, symObjAddr: 0x50F4, symBinAddr: 0x10000AA80, symSize: 0x1C }
  - { offsetInCU: 0xB12D, offset: 0x17054, size: 0x8, addend: 0x0, symName: __ZNSt3__122__compressed_pair_elemINS_9allocatorINS_12basic_stringIcNS_11char_traitsIcEENS1_IcEEEEEELi1ELb1EEC2B8ue170006ENS_18__default_init_tagE, symObjAddr: 0x5110, symBinAddr: 0x10000AA9C, symSize: 0x2C }
  - { offsetInCU: 0xB162, offset: 0x17089, size: 0x8, addend: 0x0, symName: __ZNSt3__19allocatorINS_12basic_stringIcNS_11char_traitsIcEENS0_IcEEEEEC2B8ue170006Ev, symObjAddr: 0x513C, symBinAddr: 0x10000AAC8, symSize: 0x2C }
  - { offsetInCU: 0xB18C, offset: 0x170B3, size: 0x8, addend: 0x0, symName: __ZNSt3__116__non_trivial_ifILb1ENS_9allocatorINS_12basic_stringIcNS_11char_traitsIcEENS1_IcEEEEEEEC2B8ue170006Ev, symObjAddr: 0x5168, symBinAddr: 0x10000AAF4, symSize: 0x14 }
  - { offsetInCU: 0xB1B6, offset: 0x170DD, size: 0x8, addend: 0x0, symName: __ZNSt3__128__exception_guard_exceptionsINS_6vectorINS_12basic_stringIcNS_11char_traitsIcEENS_9allocatorIcEEEENS5_IS7_EEE16__destroy_vectorEEC1B8ue170006ESA_, symObjAddr: 0x517C, symBinAddr: 0x10000AB08, symSize: 0x34 }
  - { offsetInCU: 0xB1EE, offset: 0x17115, size: 0x8, addend: 0x0, symName: __ZNSt3__128__exception_guard_exceptionsINS_6vectorINS_12basic_stringIcNS_11char_traitsIcEENS_9allocatorIcEEEENS5_IS7_EEE16__destroy_vectorEEC2B8ue170006ESA_, symObjAddr: 0x51B0, symBinAddr: 0x10000AB3C, symSize: 0x24 }
  - { offsetInCU: 0xB226, offset: 0x1714D, size: 0x8, addend: 0x0, symName: __ZNSt3__16vectorINS_12basic_stringIcNS_11char_traitsIcEENS_9allocatorIcEEEENS4_IS6_EEE16__destroy_vectorC2B8ue170006ERS8_, symObjAddr: 0x51D4, symBinAddr: 0x10000AB60, symSize: 0x20 }
  - { offsetInCU: 0xB25F, offset: 0x17186, size: 0x8, addend: 0x0, symName: __ZNKSt3__16vectorINS_12basic_stringIcNS_11char_traitsIcEENS_9allocatorIcEEEENS4_IS6_EEE8max_sizeEv, symObjAddr: 0x51F4, symBinAddr: 0x10000AB80, symSize: 0x60 }
  - { offsetInCU: 0xB287, offset: 0x171AE, size: 0x8, addend: 0x0, symName: __ZNKSt3__16vectorINS_12basic_stringIcNS_11char_traitsIcEENS_9allocatorIcEEEENS4_IS6_EEE20__throw_length_errorB8ue170006Ev, symObjAddr: 0x5254, symBinAddr: 0x10000ABE0, symSize: 0x1C }
  - { offsetInCU: 0xB2AD, offset: 0x171D4, size: 0x8, addend: 0x0, symName: __ZNSt3__16vectorINS_12basic_stringIcNS_11char_traitsIcEENS_9allocatorIcEEEENS4_IS6_EEE7__allocB8ue170006Ev, symObjAddr: 0x52B0, symBinAddr: 0x10000AC3C, symSize: 0x28 }
  - { offsetInCU: 0xB2D3, offset: 0x171FA, size: 0x8, addend: 0x0, symName: __ZNSt3__16vectorINS_12basic_stringIcNS_11char_traitsIcEENS_9allocatorIcEEEENS4_IS6_EEE9__end_capB8ue170006Ev, symObjAddr: 0x52D8, symBinAddr: 0x10000AC64, symSize: 0x28 }
  - { offsetInCU: 0xB2F9, offset: 0x17220, size: 0x8, addend: 0x0, symName: __ZNKSt3__16vectorINS_12basic_stringIcNS_11char_traitsIcEENS_9allocatorIcEEEENS4_IS6_EEE14__annotate_newB8ue170006Em, symObjAddr: 0x5300, symBinAddr: 0x10000AC8C, symSize: 0xC8 }
  - { offsetInCU: 0xB338, offset: 0x1725F, size: 0x8, addend: 0x0, symName: __ZNSt3__116allocator_traitsINS_9allocatorINS_12basic_stringIcNS_11char_traitsIcEENS1_IcEEEEEEE8max_sizeB8ue170006IS7_vEEmRKS7_, symObjAddr: 0x53F4, symBinAddr: 0x10000AD80, symSize: 0x24 }
  - { offsetInCU: 0xB366, offset: 0x1728D, size: 0x8, addend: 0x0, symName: __ZNKSt3__16vectorINS_12basic_stringIcNS_11char_traitsIcEENS_9allocatorIcEEEENS4_IS6_EEE7__allocB8ue170006Ev, symObjAddr: 0x5418, symBinAddr: 0x10000ADA4, symSize: 0x28 }
  - { offsetInCU: 0xB3A0, offset: 0x172C7, size: 0x8, addend: 0x0, symName: __ZNKSt3__16__lessIvvEclB8ue170006ImmEEbRKT_RKT0_, symObjAddr: 0x54A8, symBinAddr: 0x10000AE20, symSize: 0x34 }
  - { offsetInCU: 0xB3F4, offset: 0x1731B, size: 0x8, addend: 0x0, symName: __ZNKSt3__19allocatorINS_12basic_stringIcNS_11char_traitsIcEENS0_IcEEEEE8max_sizeB8ue170006Ev, symObjAddr: 0x54DC, symBinAddr: 0x10000AE54, symSize: 0x18 }
  - { offsetInCU: 0xB41A, offset: 0x17341, size: 0x8, addend: 0x0, symName: __ZNKSt3__117__compressed_pairIPNS_12basic_stringIcNS_11char_traitsIcEENS_9allocatorIcEEEENS4_IS6_EEE6secondB8ue170006Ev, symObjAddr: 0x54F4, symBinAddr: 0x10000AE6C, symSize: 0x24 }
  - { offsetInCU: 0xB440, offset: 0x17367, size: 0x8, addend: 0x0, symName: __ZNKSt3__122__compressed_pair_elemINS_9allocatorINS_12basic_stringIcNS_11char_traitsIcEENS1_IcEEEEEELi1ELb1EE5__getB8ue170006Ev, symObjAddr: 0x5518, symBinAddr: 0x10000AE90, symSize: 0x14 }
  - { offsetInCU: 0xB466, offset: 0x1738D, size: 0x8, addend: 0x0, symName: __ZNSt12length_errorC1B8ue170006EPKc, symObjAddr: 0x5598, symBinAddr: 0x10000AF08, symSize: 0x34 }
  - { offsetInCU: 0xB49E, offset: 0x173C5, size: 0x8, addend: 0x0, symName: __ZNSt12length_errorC2B8ue170006EPKc, symObjAddr: 0x55CC, symBinAddr: 0x10000AF3C, symSize: 0x4C }
  - { offsetInCU: 0xB4D6, offset: 0x173FD, size: 0x8, addend: 0x0, symName: __ZNSt3__19allocatorINS_12basic_stringIcNS_11char_traitsIcEENS0_IcEEEEE8allocateB8ue170006Em, symObjAddr: 0x5618, symBinAddr: 0x10000AF88, symSize: 0x5C }
  - { offsetInCU: 0xB50A, offset: 0x17431, size: 0x8, addend: 0x0, symName: __ZNSt3__117__compressed_pairIPNS_12basic_stringIcNS_11char_traitsIcEENS_9allocatorIcEEEENS4_IS6_EEE6secondB8ue170006Ev, symObjAddr: 0x5778, symBinAddr: 0x10000B0C8, symSize: 0x24 }
  - { offsetInCU: 0xB530, offset: 0x17457, size: 0x8, addend: 0x0, symName: __ZNSt3__122__compressed_pair_elemINS_9allocatorINS_12basic_stringIcNS_11char_traitsIcEENS1_IcEEEEEELi1ELb1EE5__getB8ue170006Ev, symObjAddr: 0x579C, symBinAddr: 0x10000B0EC, symSize: 0x14 }
  - { offsetInCU: 0xB556, offset: 0x1747D, size: 0x8, addend: 0x0, symName: __ZNSt3__117__compressed_pairIPNS_12basic_stringIcNS_11char_traitsIcEENS_9allocatorIcEEEENS4_IS6_EEE5firstB8ue170006Ev, symObjAddr: 0x57B0, symBinAddr: 0x10000B100, symSize: 0x24 }
  - { offsetInCU: 0xB57C, offset: 0x174A3, size: 0x8, addend: 0x0, symName: __ZNSt3__122__compressed_pair_elemIPNS_12basic_stringIcNS_11char_traitsIcEENS_9allocatorIcEEEELi0ELb0EE5__getB8ue170006Ev, symObjAddr: 0x57D4, symBinAddr: 0x10000B124, symSize: 0x14 }
  - { offsetInCU: 0xB5A2, offset: 0x174C9, size: 0x8, addend: 0x0, symName: __ZNKSt3__16vectorINS_12basic_stringIcNS_11char_traitsIcEENS_9allocatorIcEEEENS4_IS6_EEE31__annotate_contiguous_containerB8ue170006EPKvSA_SA_SA_, symObjAddr: 0x57E8, symBinAddr: 0x10000B138, symSize: 0x20 }
  - { offsetInCU: 0xB5F8, offset: 0x1751F, size: 0x8, addend: 0x0, symName: __ZNKSt3__16vectorINS_12basic_stringIcNS_11char_traitsIcEENS_9allocatorIcEEEENS4_IS6_EEE4dataB8ue170006Ev, symObjAddr: 0x5808, symBinAddr: 0x10000B158, symSize: 0x28 }
  - { offsetInCU: 0xB61E, offset: 0x17545, size: 0x8, addend: 0x0, symName: __ZNKSt3__16vectorINS_12basic_stringIcNS_11char_traitsIcEENS_9allocatorIcEEEENS4_IS6_EEE8capacityB8ue170006Ev, symObjAddr: 0x5830, symBinAddr: 0x10000B180, symSize: 0x40 }
  - { offsetInCU: 0xB644, offset: 0x1756B, size: 0x8, addend: 0x0, symName: __ZNKSt3__16vectorINS_12basic_stringIcNS_11char_traitsIcEENS_9allocatorIcEEEENS4_IS6_EEE9__end_capB8ue170006Ev, symObjAddr: 0x5884, symBinAddr: 0x10000B1D4, symSize: 0x28 }
  - { offsetInCU: 0xB66A, offset: 0x17591, size: 0x8, addend: 0x0, symName: __ZNKSt3__117__compressed_pairIPNS_12basic_stringIcNS_11char_traitsIcEENS_9allocatorIcEEEENS4_IS6_EEE5firstB8ue170006Ev, symObjAddr: 0x58AC, symBinAddr: 0x10000B1FC, symSize: 0x24 }
  - { offsetInCU: 0xB690, offset: 0x175B7, size: 0x8, addend: 0x0, symName: __ZNKSt3__122__compressed_pair_elemIPNS_12basic_stringIcNS_11char_traitsIcEENS_9allocatorIcEEEELi0ELb0EE5__getB8ue170006Ev, symObjAddr: 0x58D0, symBinAddr: 0x10000B220, symSize: 0x14 }
  - { offsetInCU: 0xB6CF, offset: 0x175F6, size: 0x8, addend: 0x0, symName: __ZNSt3__16vectorINS_12basic_stringIcNS_11char_traitsIcEENS_9allocatorIcEEEENS4_IS6_EEE21_ConstructTransactionC1B8ue170006ERS8_m, symObjAddr: 0x58E4, symBinAddr: 0x10000B234, symSize: 0x3C }
  - { offsetInCU: 0xB717, offset: 0x1763E, size: 0x8, addend: 0x0, symName: __ZNSt3__116allocator_traitsINS_9allocatorINS_12basic_stringIcNS_11char_traitsIcEENS1_IcEEEEEEE9constructB8ue170006IS6_JRKS6_EvEEvRS7_PT_DpOT0_, symObjAddr: 0x5920, symBinAddr: 0x10000B270, symSize: 0x34 }
  - { offsetInCU: 0xB76E, offset: 0x17695, size: 0x8, addend: 0x0, symName: __ZNSt3__16vectorINS_12basic_stringIcNS_11char_traitsIcEENS_9allocatorIcEEEENS4_IS6_EEE21_ConstructTransactionD1B8ue170006Ev, symObjAddr: 0x5954, symBinAddr: 0x10000B2A4, symSize: 0x2C }
  - { offsetInCU: 0xB798, offset: 0x176BF, size: 0x8, addend: 0x0, symName: __ZNSt3__16vectorINS_12basic_stringIcNS_11char_traitsIcEENS_9allocatorIcEEEENS4_IS6_EEE21_ConstructTransactionC2B8ue170006ERS8_m, symObjAddr: 0x5980, symBinAddr: 0x10000B2D0, symSize: 0x4C }
  - { offsetInCU: 0xB7E0, offset: 0x17707, size: 0x8, addend: 0x0, symName: __ZNSt3__19allocatorINS_12basic_stringIcNS_11char_traitsIcEENS0_IcEEEEE9constructB8ue170006IS5_JRKS5_EEEvPT_DpOT0_, symObjAddr: 0x59CC, symBinAddr: 0x10000B31C, symSize: 0x30 }
  - { offsetInCU: 0xB836, offset: 0x1775D, size: 0x8, addend: 0x0, symName: __ZNSt3__16vectorINS_12basic_stringIcNS_11char_traitsIcEENS_9allocatorIcEEEENS4_IS6_EEE21_ConstructTransactionD2B8ue170006Ev, symObjAddr: 0x59FC, symBinAddr: 0x10000B34C, symSize: 0x20 }
  - { offsetInCU: 0xB860, offset: 0x17787, size: 0x8, addend: 0x0, symName: __ZNSt3__128__exception_guard_exceptionsINS_6vectorINS_12basic_stringIcNS_11char_traitsIcEENS_9allocatorIcEEEENS5_IS7_EEE16__destroy_vectorEED2B8ue170006Ev, symObjAddr: 0x5A1C, symBinAddr: 0x10000B36C, symSize: 0x50 }
  - { offsetInCU: 0xB88A, offset: 0x177B1, size: 0x8, addend: 0x0, symName: __ZNSt3__16vectorINS_12basic_stringIcNS_11char_traitsIcEENS_9allocatorIcEEEENS4_IS6_EEE16__destroy_vectorclB8ue170006Ev, symObjAddr: 0x5A6C, symBinAddr: 0x10000B3BC, symSize: 0x90 }
  - { offsetInCU: 0xB8B0, offset: 0x177D7, size: 0x8, addend: 0x0, symName: __ZNSt3__16vectorINS_12basic_stringIcNS_11char_traitsIcEENS_9allocatorIcEEEENS4_IS6_EEE7__clearB8ue170006Ev, symObjAddr: 0x5AFC, symBinAddr: 0x10000B44C, symSize: 0x28 }
  - { offsetInCU: 0xB8D6, offset: 0x177FD, size: 0x8, addend: 0x0, symName: __ZNKSt3__16vectorINS_12basic_stringIcNS_11char_traitsIcEENS_9allocatorIcEEEENS4_IS6_EEE17__annotate_deleteB8ue170006Ev, symObjAddr: 0x5B24, symBinAddr: 0x10000B474, symSize: 0xD4 }
  - { offsetInCU: 0xB8FC, offset: 0x17823, size: 0x8, addend: 0x0, symName: __ZNSt3__116allocator_traitsINS_9allocatorINS_12basic_stringIcNS_11char_traitsIcEENS1_IcEEEEEEE10deallocateB8ue170006ERS7_PS6_m, symObjAddr: 0x5BF8, symBinAddr: 0x10000B548, symSize: 0x34 }
  - { offsetInCU: 0xB93E, offset: 0x17865, size: 0x8, addend: 0x0, symName: __ZNSt3__16vectorINS_12basic_stringIcNS_11char_traitsIcEENS_9allocatorIcEEEENS4_IS6_EEE22__base_destruct_at_endB8ue170006EPS6_, symObjAddr: 0x5C2C, symBinAddr: 0x10000B57C, symSize: 0x8C }
  - { offsetInCU: 0xB982, offset: 0x178A9, size: 0x8, addend: 0x0, symName: __ZNSt3__116allocator_traitsINS_9allocatorINS_12basic_stringIcNS_11char_traitsIcEENS1_IcEEEEEEE7destroyB8ue170006IS6_vEEvRS7_PT_, symObjAddr: 0x5CB8, symBinAddr: 0x10000B608, symSize: 0x2C }
  - { offsetInCU: 0xB9BF, offset: 0x178E6, size: 0x8, addend: 0x0, symName: __ZNSt3__19allocatorINS_12basic_stringIcNS_11char_traitsIcEENS0_IcEEEEE7destroyB8ue170006EPS5_, symObjAddr: 0x5CE4, symBinAddr: 0x10000B634, symSize: 0x28 }
  - { offsetInCU: 0xB9F3, offset: 0x1791A, size: 0x8, addend: 0x0, symName: __ZNKSt3__16vectorINS_12basic_stringIcNS_11char_traitsIcEENS_9allocatorIcEEEENS4_IS6_EEE4sizeB8ue170006Ev, symObjAddr: 0x5D0C, symBinAddr: 0x10000B65C, symSize: 0x28 }
  - { offsetInCU: 0xBA19, offset: 0x17940, size: 0x8, addend: 0x0, symName: __ZNSt3__19allocatorINS_12basic_stringIcNS_11char_traitsIcEENS0_IcEEEEE10deallocateB8ue170006EPS5_m, symObjAddr: 0x5D34, symBinAddr: 0x10000B684, symSize: 0x44 }
  - { offsetInCU: 0xBA5B, offset: 0x17982, size: 0x8, addend: 0x0, symName: __ZNSt3__16vectorINS_12basic_stringIcNS_11char_traitsIcEENS_9allocatorIcEEEENS4_IS6_EEED2B8ue170006Ev, symObjAddr: 0x5E80, symBinAddr: 0x10000B6C8, symSize: 0x40 }
  - { offsetInCU: 0xBA85, offset: 0x179AC, size: 0x8, addend: 0x0, symName: __ZNSt3__16vectorI4MoveNS_9allocatorIS1_EEEC2B8ue170006Ev, symObjAddr: 0x66A0, symBinAddr: 0x10000B708, symSize: 0x4C }
  - { offsetInCU: 0xBAAF, offset: 0x179D6, size: 0x8, addend: 0x0, symName: __ZNSt3__117__compressed_pairIP4MoveNS_9allocatorIS1_EEEC1B8ue170006IDnNS_18__default_init_tagEEEOT_OT0_, symObjAddr: 0x66EC, symBinAddr: 0x10000B754, symSize: 0x3C }
  - { offsetInCU: 0xBB07, offset: 0x17A2E, size: 0x8, addend: 0x0, symName: __ZNSt3__117__compressed_pairIP4MoveNS_9allocatorIS1_EEEC2B8ue170006IDnNS_18__default_init_tagEEEOT_OT0_, symObjAddr: 0x6728, symBinAddr: 0x10000B790, symSize: 0x40 }
  - { offsetInCU: 0xBB5F, offset: 0x17A86, size: 0x8, addend: 0x0, symName: __ZNSt3__122__compressed_pair_elemIP4MoveLi0ELb0EEC2B8ue170006IDnvEEOT_, symObjAddr: 0x6768, symBinAddr: 0x10000B7D0, symSize: 0x1C }
  - { offsetInCU: 0xBBA1, offset: 0x17AC8, size: 0x8, addend: 0x0, symName: __ZNSt3__122__compressed_pair_elemINS_9allocatorI4MoveEELi1ELb1EEC2B8ue170006ENS_18__default_init_tagE, symObjAddr: 0x6784, symBinAddr: 0x10000B7EC, symSize: 0x2C }
  - { offsetInCU: 0xBBD6, offset: 0x17AFD, size: 0x8, addend: 0x0, symName: __ZNSt3__19allocatorI4MoveEC2B8ue170006Ev, symObjAddr: 0x67B0, symBinAddr: 0x10000B818, symSize: 0x2C }
  - { offsetInCU: 0xBC00, offset: 0x17B27, size: 0x8, addend: 0x0, symName: __ZNSt3__116__non_trivial_ifILb1ENS_9allocatorI4MoveEEEC2B8ue170006Ev, symObjAddr: 0x67DC, symBinAddr: 0x10000B844, symSize: 0x14 }
  - { offsetInCU: 0xBC2A, offset: 0x17B51, size: 0x8, addend: 0x0, symName: __ZNSt3__16vectorI4MoveNS_9allocatorIS1_EEE9__end_capB8ue170006Ev, symObjAddr: 0x6CB4, symBinAddr: 0x10000B858, symSize: 0x28 }
  - { offsetInCU: 0xBC55, offset: 0x17B7C, size: 0x8, addend: 0x0, symName: __ZNSt3__16vectorI4MoveNS_9allocatorIS1_EEE22__construct_one_at_endB8ue170006IJS1_EEEvDpOT_, symObjAddr: 0x6CDC, symBinAddr: 0x10000B880, symSize: 0x90 }
  - { offsetInCU: 0xBCA4, offset: 0x17BCB, size: 0x8, addend: 0x0, symName: __ZNSt3__16vectorI4MoveNS_9allocatorIS1_EEE21__push_back_slow_pathIS1_EEvOT_, symObjAddr: 0x6D6C, symBinAddr: 0x10000B910, symSize: 0xD8 }
  - { offsetInCU: 0xBD02, offset: 0x17C29, size: 0x8, addend: 0x0, symName: __ZNSt3__117__compressed_pairIP4MoveNS_9allocatorIS1_EEE5firstB8ue170006Ev, symObjAddr: 0x6E44, symBinAddr: 0x10000B9E8, symSize: 0x24 }
  - { offsetInCU: 0xBD28, offset: 0x17C4F, size: 0x8, addend: 0x0, symName: __ZNSt3__122__compressed_pair_elemIP4MoveLi0ELb0EE5__getB8ue170006Ev, symObjAddr: 0x6E68, symBinAddr: 0x10000BA0C, symSize: 0x14 }
  - { offsetInCU: 0xBD67, offset: 0x17C8E, size: 0x8, addend: 0x0, symName: __ZNSt3__16vectorI4MoveNS_9allocatorIS1_EEE21_ConstructTransactionC1B8ue170006ERS4_m, symObjAddr: 0x6E7C, symBinAddr: 0x10000BA20, symSize: 0x3C }
  - { offsetInCU: 0xBDAF, offset: 0x17CD6, size: 0x8, addend: 0x0, symName: __ZNSt3__116allocator_traitsINS_9allocatorI4MoveEEE9constructB8ue170006IS2_JS2_EvEEvRS3_PT_DpOT0_, symObjAddr: 0x6EB8, symBinAddr: 0x10000BA5C, symSize: 0x34 }
  - { offsetInCU: 0xBE06, offset: 0x17D2D, size: 0x8, addend: 0x0, symName: __ZNSt3__16vectorI4MoveNS_9allocatorIS1_EEE21_ConstructTransactionD1B8ue170006Ev, symObjAddr: 0x6EEC, symBinAddr: 0x10000BA90, symSize: 0x2C }
  - { offsetInCU: 0xBE30, offset: 0x17D57, size: 0x8, addend: 0x0, symName: __ZNSt3__16vectorI4MoveNS_9allocatorIS1_EEE21_ConstructTransactionC2B8ue170006ERS4_m, symObjAddr: 0x6F18, symBinAddr: 0x10000BABC, symSize: 0x4C }
  - { offsetInCU: 0xBE78, offset: 0x17D9F, size: 0x8, addend: 0x0, symName: __ZNSt3__19allocatorI4MoveE9constructB8ue170006IS1_JS1_EEEvPT_DpOT0_, symObjAddr: 0x6F64, symBinAddr: 0x10000BB08, symSize: 0x30 }
  - { offsetInCU: 0xBECE, offset: 0x17DF5, size: 0x8, addend: 0x0, symName: __ZNSt3__16vectorI4MoveNS_9allocatorIS1_EEE21_ConstructTransactionD2B8ue170006Ev, symObjAddr: 0x6F94, symBinAddr: 0x10000BB38, symSize: 0x20 }
  - { offsetInCU: 0xBEF8, offset: 0x17E1F, size: 0x8, addend: 0x0, symName: __ZNKSt3__16vectorI4MoveNS_9allocatorIS1_EEE11__recommendB8ue170006Em, symObjAddr: 0x6FB4, symBinAddr: 0x10000BB58, symSize: 0xB4 }
  - { offsetInCU: 0xBF4D, offset: 0x17E74, size: 0x8, addend: 0x0, symName: __ZNSt3__114__split_bufferI4MoveRNS_9allocatorIS1_EEEC1EmmS4_, symObjAddr: 0x7068, symBinAddr: 0x10000BC0C, symSize: 0x44 }
  - { offsetInCU: 0xBFA3, offset: 0x17ECA, size: 0x8, addend: 0x0, symName: __ZNSt3__114__split_bufferI4MoveRNS_9allocatorIS1_EEED1Ev, symObjAddr: 0x71BC, symBinAddr: 0x10000BD60, symSize: 0x2C }
  - { offsetInCU: 0xBFCF, offset: 0x17EF6, size: 0x8, addend: 0x0, symName: __ZNKSt3__16vectorI4MoveNS_9allocatorIS1_EEE8max_sizeEv, symObjAddr: 0x71E8, symBinAddr: 0x10000BD8C, symSize: 0x60 }
  - { offsetInCU: 0xBFF7, offset: 0x17F1E, size: 0x8, addend: 0x0, symName: __ZNKSt3__16vectorI4MoveNS_9allocatorIS1_EEE20__throw_length_errorB8ue170006Ev, symObjAddr: 0x7248, symBinAddr: 0x10000BDEC, symSize: 0x1C }
  - { offsetInCU: 0xC027, offset: 0x17F4E, size: 0x8, addend: 0x0, symName: __ZNSt3__116allocator_traitsINS_9allocatorI4MoveEEE8max_sizeB8ue170006IS3_vEEmRKS3_, symObjAddr: 0x7290, symBinAddr: 0x10000BE34, symSize: 0x24 }
  - { offsetInCU: 0xC055, offset: 0x17F7C, size: 0x8, addend: 0x0, symName: __ZNKSt3__16vectorI4MoveNS_9allocatorIS1_EEE7__allocB8ue170006Ev, symObjAddr: 0x72B4, symBinAddr: 0x10000BE58, symSize: 0x28 }
  - { offsetInCU: 0xC07B, offset: 0x17FA2, size: 0x8, addend: 0x0, symName: __ZNKSt3__19allocatorI4MoveE8max_sizeB8ue170006Ev, symObjAddr: 0x72DC, symBinAddr: 0x10000BE80, symSize: 0x18 }
  - { offsetInCU: 0xC0A1, offset: 0x17FC8, size: 0x8, addend: 0x0, symName: __ZNKSt3__117__compressed_pairIP4MoveNS_9allocatorIS1_EEE6secondB8ue170006Ev, symObjAddr: 0x72F4, symBinAddr: 0x10000BE98, symSize: 0x24 }
  - { offsetInCU: 0xC0C7, offset: 0x17FEE, size: 0x8, addend: 0x0, symName: __ZNKSt3__122__compressed_pair_elemINS_9allocatorI4MoveEELi1ELb1EE5__getB8ue170006Ev, symObjAddr: 0x7318, symBinAddr: 0x10000BEBC, symSize: 0x14 }
  - { offsetInCU: 0xC0ED, offset: 0x18014, size: 0x8, addend: 0x0, symName: __ZNSt3__114__split_bufferI4MoveRNS_9allocatorIS1_EEEC2EmmS4_, symObjAddr: 0x7380, symBinAddr: 0x10000BF24, symSize: 0xE0 }
  - { offsetInCU: 0xC160, offset: 0x18087, size: 0x8, addend: 0x0, symName: __ZNSt3__117__compressed_pairIP4MoveRNS_9allocatorIS1_EEEC1B8ue170006IDnS5_EEOT_OT0_, symObjAddr: 0x7460, symBinAddr: 0x10000C004, symSize: 0x3C }
  - { offsetInCU: 0xC1B8, offset: 0x180DF, size: 0x8, addend: 0x0, symName: __ZNSt3__114__split_bufferI4MoveRNS_9allocatorIS1_EEE7__allocB8ue170006Ev, symObjAddr: 0x74DC, symBinAddr: 0x10000C080, symSize: 0x28 }
  - { offsetInCU: 0xC1DE, offset: 0x18105, size: 0x8, addend: 0x0, symName: __ZNSt3__114__split_bufferI4MoveRNS_9allocatorIS1_EEE9__end_capB8ue170006Ev, symObjAddr: 0x7504, symBinAddr: 0x10000C0A8, symSize: 0x28 }
  - { offsetInCU: 0xC204, offset: 0x1812B, size: 0x8, addend: 0x0, symName: __ZNSt3__117__compressed_pairIP4MoveRNS_9allocatorIS1_EEEC2B8ue170006IDnS5_EEOT_OT0_, symObjAddr: 0x752C, symBinAddr: 0x10000C0D0, symSize: 0x48 }
  - { offsetInCU: 0xC25C, offset: 0x18183, size: 0x8, addend: 0x0, symName: __ZNSt3__122__compressed_pair_elemIRNS_9allocatorI4MoveEELi1ELb0EEC2B8ue170006IS4_vEEOT_, symObjAddr: 0x7574, symBinAddr: 0x10000C118, symSize: 0x20 }
  - { offsetInCU: 0xC29E, offset: 0x181C5, size: 0x8, addend: 0x0, symName: __ZNSt3__19allocatorI4MoveE8allocateB8ue170006Em, symObjAddr: 0x7594, symBinAddr: 0x10000C138, symSize: 0x5C }
  - { offsetInCU: 0xC2D2, offset: 0x181F9, size: 0x8, addend: 0x0, symName: __ZNSt3__117__compressed_pairIP4MoveRNS_9allocatorIS1_EEE6secondB8ue170006Ev, symObjAddr: 0x75F0, symBinAddr: 0x10000C194, symSize: 0x28 }
  - { offsetInCU: 0xC2F8, offset: 0x1821F, size: 0x8, addend: 0x0, symName: __ZNSt3__122__compressed_pair_elemIRNS_9allocatorI4MoveEELi1ELb0EE5__getB8ue170006Ev, symObjAddr: 0x7618, symBinAddr: 0x10000C1BC, symSize: 0x18 }
  - { offsetInCU: 0xC31E, offset: 0x18245, size: 0x8, addend: 0x0, symName: __ZNSt3__117__compressed_pairIP4MoveRNS_9allocatorIS1_EEE5firstB8ue170006Ev, symObjAddr: 0x7630, symBinAddr: 0x10000C1D4, symSize: 0x24 }
  - { offsetInCU: 0xC344, offset: 0x1826B, size: 0x8, addend: 0x0, symName: __ZNSt3__116reverse_iteratorIP4MoveEC1B8ue170006ES2_, symObjAddr: 0x76CC, symBinAddr: 0x10000C270, symSize: 0x34 }
  - { offsetInCU: 0xC37C, offset: 0x182A3, size: 0x8, addend: 0x0, symName: __ZNKSt3__116reverse_iteratorIP4MoveE4baseB8ue170006Ev, symObjAddr: 0x7700, symBinAddr: 0x10000C2A4, symSize: 0x18 }
  - { offsetInCU: 0xC3A2, offset: 0x182C9, size: 0x8, addend: 0x0, symName: __ZNKSt3__16vectorI4MoveNS_9allocatorIS1_EEE14__annotate_newB8ue170006Em, symObjAddr: 0x7754, symBinAddr: 0x10000C2F8, symSize: 0xC8 }
  - { offsetInCU: 0xC3FA, offset: 0x18321, size: 0x8, addend: 0x0, symName: __ZNKSt3__111__move_loopINS_17_ClassicAlgPolicyEEclB8ue170006INS_16reverse_iteratorIP4MoveEES7_S7_EENS_4pairIT_T1_EES9_T0_SA_, symObjAddr: 0x7B0C, symBinAddr: 0x10000C6B0, symSize: 0xA8 }
  - { offsetInCU: 0xC465, offset: 0x1838C, size: 0x8, addend: 0x0, symName: __ZNSt3__18_IterOpsINS_17_ClassicAlgPolicyEE11__iter_moveB8ue170006IRNS_16reverse_iteratorIP4MoveEEEENS_9enable_ifIXsr12is_referenceIDTdeclsr3stdE7declvalIRT_EEEEE5valueEDTclsr3stdE4movedeclsr3stdE7declvalISB_EEEEE4typeEOSA_, symObjAddr: 0x7D48, symBinAddr: 0x10000C8EC, symSize: 0x28 }
  - { offsetInCU: 0xC491, offset: 0x183B8, size: 0x8, addend: 0x0, symName: __ZNKSt3__116reverse_iteratorIP4MoveEdeB8ue170006Ev, symObjAddr: 0x7D70, symBinAddr: 0x10000C914, symSize: 0x28 }
  - { offsetInCU: 0xC4C5, offset: 0x183EC, size: 0x8, addend: 0x0, symName: __ZNSt3__116reverse_iteratorIP4MoveEppB8ue170006Ev, symObjAddr: 0x7D98, symBinAddr: 0x10000C93C, symSize: 0x20 }
  - { offsetInCU: 0xC4EB, offset: 0x18412, size: 0x8, addend: 0x0, symName: __ZNSt3__18_IterOpsINS_17_ClassicAlgPolicyEE25__validate_iter_referenceB8ue170006IRNS_16reverse_iteratorIP4MoveEEEEvv, symObjAddr: 0x7DB8, symBinAddr: 0x10000C95C, symSize: 0x4 }
  - { offsetInCU: 0xC509, offset: 0x18430, size: 0x8, addend: 0x0, symName: __ZNSt3__118__unwrap_iter_implINS_16reverse_iteratorIP4MoveEELb0EE8__unwrapB8ue170006ES4_, symObjAddr: 0x7DBC, symBinAddr: 0x10000C960, symSize: 0x24 }
  - { offsetInCU: 0xC531, offset: 0x18458, size: 0x8, addend: 0x0, symName: __ZNSt3__14pairINS_16reverse_iteratorIP4MoveEES4_EC1B8ue170006IS4_S4_LPv0EEEOT_OT0_, symObjAddr: 0x7DE0, symBinAddr: 0x10000C984, symSize: 0x3C }
  - { offsetInCU: 0xC590, offset: 0x184B7, size: 0x8, addend: 0x0, symName: __ZNSt3__14pairINS_16reverse_iteratorIP4MoveEES4_EC2B8ue170006IS4_S4_LPv0EEEOT_OT0_, symObjAddr: 0x7E1C, symBinAddr: 0x10000C9C0, symSize: 0x34 }
  - { offsetInCU: 0xC5EF, offset: 0x18516, size: 0x8, addend: 0x0, symName: __ZNSt3__118__unwrap_iter_implINS_16reverse_iteratorIP4MoveEELb0EE8__rewrapB8ue170006ES4_S4_, symObjAddr: 0x7E50, symBinAddr: 0x10000C9F4, symSize: 0x2C }
  - { offsetInCU: 0xC61D, offset: 0x18544, size: 0x8, addend: 0x0, symName: __ZNSt3__116reverse_iteratorIP4MoveEC2B8ue170006ES2_, symObjAddr: 0x7E7C, symBinAddr: 0x10000CA20, symSize: 0x28 }
  - { offsetInCU: 0xC655, offset: 0x1857C, size: 0x8, addend: 0x0, symName: __ZNSt3__114__split_bufferI4MoveRNS_9allocatorIS1_EEED2Ev, symObjAddr: 0x7EA4, symBinAddr: 0x10000CA48, symSize: 0x8C }
  - { offsetInCU: 0xC681, offset: 0x185A8, size: 0x8, addend: 0x0, symName: __ZNSt3__114__split_bufferI4MoveRNS_9allocatorIS1_EEE5clearB8ue170006Ev, symObjAddr: 0x7F30, symBinAddr: 0x10000CAD4, symSize: 0x28 }
  - { offsetInCU: 0xC6A7, offset: 0x185CE, size: 0x8, addend: 0x0, symName: __ZNKSt3__114__split_bufferI4MoveRNS_9allocatorIS1_EEE8capacityB8ue170006Ev, symObjAddr: 0x7F58, symBinAddr: 0x10000CAFC, symSize: 0x40 }
  - { offsetInCU: 0xC6CD, offset: 0x185F4, size: 0x8, addend: 0x0, symName: __ZNSt3__114__split_bufferI4MoveRNS_9allocatorIS1_EEE17__destruct_at_endB8ue170006EPS1_, symObjAddr: 0x7F98, symBinAddr: 0x10000CB3C, symSize: 0x2C }
  - { offsetInCU: 0xC701, offset: 0x18628, size: 0x8, addend: 0x0, symName: __ZNSt3__114__split_bufferI4MoveRNS_9allocatorIS1_EEE17__destruct_at_endB8ue170006EPS1_NS_17integral_constantIbLb0EEE, symObjAddr: 0x7FC4, symBinAddr: 0x10000CB68, symSize: 0x80 }
  - { offsetInCU: 0xC742, offset: 0x18669, size: 0x8, addend: 0x0, symName: __ZNKSt3__114__split_bufferI4MoveRNS_9allocatorIS1_EEE9__end_capB8ue170006Ev, symObjAddr: 0x8044, symBinAddr: 0x10000CBE8, symSize: 0x28 }
  - { offsetInCU: 0xC768, offset: 0x1868F, size: 0x8, addend: 0x0, symName: __ZNKSt3__117__compressed_pairIP4MoveRNS_9allocatorIS1_EEE5firstB8ue170006Ev, symObjAddr: 0x806C, symBinAddr: 0x10000CC10, symSize: 0x24 }
  - { offsetInCU: 0xC78E, offset: 0x186B5, size: 0x8, addend: 0x0, symName: __ZNSt3__16vectorI4MoveNS_9allocatorIS1_EEE18__insert_with_sizeB8ue170006INS_11__wrap_iterIPS1_EES8_EES8_NS6_IPKS1_EET_T0_l, symObjAddr: 0x8114, symBinAddr: 0x10000CC34, symSize: 0x320 }
  - { offsetInCU: 0xC8B6, offset: 0x187DD, size: 0x8, addend: 0x0, symName: __ZNSt3__16vectorI4MoveNS_9allocatorIS1_EEE18__construct_at_endINS_11__wrap_iterIPS1_EES8_EEvT_T0_m, symObjAddr: 0x852C, symBinAddr: 0x10000D04C, symSize: 0x9C }
  - { offsetInCU: 0xC92C, offset: 0x18853, size: 0x8, addend: 0x0, symName: __ZNSt3__16vectorI4MoveNS_9allocatorIS1_EEE12__move_rangeEPS1_S5_S5_, symObjAddr: 0x85C8, symBinAddr: 0x10000D0E8, symSize: 0x13C }
  - { offsetInCU: 0xC9E8, offset: 0x1890F, size: 0x8, addend: 0x0, symName: __ZNSt3__114__split_bufferI4MoveRNS_9allocatorIS1_EEE28__construct_at_end_with_sizeINS_11__wrap_iterIPS1_EEEEvT_m, symObjAddr: 0x8754, symBinAddr: 0x10000D274, symSize: 0xD0 }
  - { offsetInCU: 0xCA44, offset: 0x1896B, size: 0x8, addend: 0x0, symName: __ZNKSt3__111__wrap_iterIPK4MoveE4baseB8ue170006Ev, symObjAddr: 0x8970, symBinAddr: 0x10000D490, symSize: 0x18 }
  - { offsetInCU: 0xCA88, offset: 0x189AF, size: 0x8, addend: 0x0, symName: __ZNSt3__14pairIP4MoveS2_EC1B8ue170006IS2_S2_LPv0EEEOT_OT0_, symObjAddr: 0x8BF4, symBinAddr: 0x10000D6B8, symSize: 0x3C }
  - { offsetInCU: 0xCAE7, offset: 0x18A0E, size: 0x8, addend: 0x0, symName: __ZNSt3__14pairIP4MoveS2_EC2B8ue170006IS2_S2_LPv0EEEOT_OT0_, symObjAddr: 0x8C30, symBinAddr: 0x10000D6F4, symSize: 0x34 }
  - { offsetInCU: 0xCB50, offset: 0x18A77, size: 0x8, addend: 0x0, symName: __ZNKSt3__114__copy_trivialclB8ue170006I4MoveS2_Li0EEENS_4pairIPT_PT0_EES5_S5_S7_, symObjAddr: 0x8EE8, symBinAddr: 0x10000D904, symSize: 0x48 }
  - { offsetInCU: 0xCBB8, offset: 0x18ADF, size: 0x8, addend: 0x0, symName: __ZNSt3__14pairIP4MoveS2_EC1B8ue170006IRS2_S2_LPv0EEEOT_OT0_, symObjAddr: 0x9084, symBinAddr: 0x10000DAA0, symSize: 0x3C }
  - { offsetInCU: 0xCC17, offset: 0x18B3E, size: 0x8, addend: 0x0, symName: __ZNSt3__14pairIP4MoveS2_EC2B8ue170006IRS2_S2_LPv0EEEOT_OT0_, symObjAddr: 0x90C0, symBinAddr: 0x10000DADC, symSize: 0x34 }
  - { offsetInCU: 0xCC76, offset: 0x18B9D, size: 0x8, addend: 0x0, symName: __ZNSt3__118__unwrap_iter_implIP4MoveLb1EE8__unwrapB8ue170006ES2_, symObjAddr: 0x90F4, symBinAddr: 0x10000DB10, symSize: 0x24 }
  - { offsetInCU: 0xCC99, offset: 0x18BC0, size: 0x8, addend: 0x0, symName: __ZNSt3__118__unwrap_iter_implIP4MoveLb1EE8__rewrapB8ue170006ES2_S2_, symObjAddr: 0x9118, symBinAddr: 0x10000DB34, symSize: 0x58 }
  - { offsetInCU: 0xCCD4, offset: 0x18BFB, size: 0x8, addend: 0x0, symName: __ZNKSt3__123__move_backward_trivialclB8ue170006I4MoveS2_Li0EEENS_4pairIPT_PT0_EES5_S5_S7_, symObjAddr: 0x92EC, symBinAddr: 0x10000DD08, symSize: 0x48 }
  - { offsetInCU: 0xCD3C, offset: 0x18C63, size: 0x8, addend: 0x0, symName: __ZNSt3__14pairIP4MoveS2_EC1B8ue170006IRS2_S5_LPv0EEEOT_OT0_, symObjAddr: 0x93FC, symBinAddr: 0x10000DE18, symSize: 0x3C }
  - { offsetInCU: 0xCD9B, offset: 0x18CC2, size: 0x8, addend: 0x0, symName: __ZNSt3__14pairIP4MoveS2_EC2B8ue170006IRS2_S5_LPv0EEEOT_OT0_, symObjAddr: 0x9438, symBinAddr: 0x10000DE54, symSize: 0x34 }
  - { offsetInCU: 0xCE18, offset: 0x18D3F, size: 0x8, addend: 0x0, symName: __ZNSt3__14pairINS_11__wrap_iterIP4MoveEES3_EC1B8ue170006IS4_S3_LPv0EEEOT_OT0_, symObjAddr: 0x9654, symBinAddr: 0x10000E070, symSize: 0x3C }
  - { offsetInCU: 0xCE77, offset: 0x18D9E, size: 0x8, addend: 0x0, symName: __ZNSt3__14pairINS_11__wrap_iterIP4MoveEES3_EC2B8ue170006IS4_S3_LPv0EEEOT_OT0_, symObjAddr: 0x9690, symBinAddr: 0x10000E0AC, symSize: 0x34 }
  - { offsetInCU: 0xCEE0, offset: 0x18E07, size: 0x8, addend: 0x0, symName: __ZNSt3__114__split_bufferI4MoveRNS_9allocatorIS1_EEE21_ConstructTransactionC1B8ue170006EPPS1_m, symObjAddr: 0x97A8, symBinAddr: 0x10000E0E0, symSize: 0x3C }
  - { offsetInCU: 0xCF26, offset: 0x18E4D, size: 0x8, addend: 0x0, symName: __ZNSt3__116allocator_traitsINS_9allocatorI4MoveEEE9constructB8ue170006IS2_JRS2_EvEEvRS3_PT_DpOT0_, symObjAddr: 0x97E4, symBinAddr: 0x10000E11C, symSize: 0x34 }
  - { offsetInCU: 0xCF7D, offset: 0x18EA4, size: 0x8, addend: 0x0, symName: __ZNSt3__114__split_bufferI4MoveRNS_9allocatorIS1_EEE21_ConstructTransactionD1B8ue170006Ev, symObjAddr: 0x9818, symBinAddr: 0x10000E150, symSize: 0x2C }
  - { offsetInCU: 0xCFA7, offset: 0x18ECE, size: 0x8, addend: 0x0, symName: __ZNSt3__114__split_bufferI4MoveRNS_9allocatorIS1_EEE21_ConstructTransactionC2B8ue170006EPPS1_m, symObjAddr: 0x9844, symBinAddr: 0x10000E17C, symSize: 0x4C }
  - { offsetInCU: 0xCFED, offset: 0x18F14, size: 0x8, addend: 0x0, symName: __ZNSt3__19allocatorI4MoveE9constructB8ue170006IS1_JRS1_EEEvPT_DpOT0_, symObjAddr: 0x9890, symBinAddr: 0x10000E1C8, symSize: 0x30 }
  - { offsetInCU: 0xD043, offset: 0x18F6A, size: 0x8, addend: 0x0, symName: __ZNSt3__114__split_bufferI4MoveRNS_9allocatorIS1_EEE21_ConstructTransactionD2B8ue170006Ev, symObjAddr: 0x98C0, symBinAddr: 0x10000E1F8, symSize: 0x20 }
  - { offsetInCU: 0xD077, offset: 0x18F9E, size: 0x8, addend: 0x0, symName: __ZNKSt3__114__move_trivialclB8ue170006I4MoveS2_Li0EEENS_4pairIPT_PT0_EES5_S5_S7_, symObjAddr: 0x9A94, symBinAddr: 0x10000E3CC, symSize: 0x48 }
  - { offsetInCU: 0xD0DF, offset: 0x19006, size: 0x8, addend: 0x0, symName: __ZNSt3__16vectorI4MoveNS_9allocatorIS1_EEE22__construct_one_at_endB8ue170006IJRKS1_EEEvDpOT_, symObjAddr: 0x9B54, symBinAddr: 0x10000E48C, symSize: 0x90 }
  - { offsetInCU: 0xD12E, offset: 0x19055, size: 0x8, addend: 0x0, symName: __ZNSt3__16vectorI4MoveNS_9allocatorIS1_EEE21__push_back_slow_pathIRKS1_EEvOT_, symObjAddr: 0x9BE4, symBinAddr: 0x10000E51C, symSize: 0xD8 }
  - { offsetInCU: 0xD18C, offset: 0x190B3, size: 0x8, addend: 0x0, symName: __ZNSt3__116allocator_traitsINS_9allocatorI4MoveEEE9constructB8ue170006IS2_JRKS2_EvEEvRS3_PT_DpOT0_, symObjAddr: 0x9CBC, symBinAddr: 0x10000E5F4, symSize: 0x34 }
  - { offsetInCU: 0xD1E3, offset: 0x1910A, size: 0x8, addend: 0x0, symName: __ZNSt3__19allocatorI4MoveE9constructB8ue170006IS1_JRKS1_EEEvPT_DpOT0_, symObjAddr: 0x9CF0, symBinAddr: 0x10000E628, symSize: 0x30 }
  - { offsetInCU: 0x35EA, offset: 0x1C82A, size: 0x8, addend: 0x0, symName: __Z16evaluatePositionR10ChessBoard, symObjAddr: 0x0, symBinAddr: 0x10000E658, symSize: 0xDC }
  - { offsetInCU: 0x3624, offset: 0x1C864, size: 0x8, addend: 0x0, symName: __Z16evaluateMaterialR10ChessBoard, symObjAddr: 0xDC, symBinAddr: 0x10000E734, symSize: 0x274 }
  - { offsetInCU: 0x366C, offset: 0x1C8AC, size: 0x8, addend: 0x0, symName: __Z20evaluateDoubledPawnsR10ChessBoard, symObjAddr: 0x350, symBinAddr: 0x10000E9A8, symSize: 0x15C }
  - { offsetInCU: 0x3740, offset: 0x1C980, size: 0x8, addend: 0x0, symName: __Z16evaluateMobilityR10ChessBoard, symObjAddr: 0x4AC, symBinAddr: 0x10000EB04, symSize: 0xA8 }
  - { offsetInCU: 0x3788, offset: 0x1C9C8, size: 0x8, addend: 0x0, symName: __Z7minimaxR10ChessBoardib, symObjAddr: 0x5A8, symBinAddr: 0x10000EBAC, symSize: 0x35C }
  - { offsetInCU: 0x393D, offset: 0x1CB7D, size: 0x8, addend: 0x0, symName: __ZNSt3__14pairIi4MoveEC1B8ue170006IiS1_LPv0EEEOT_OT0_, symObjAddr: 0x904, symBinAddr: 0x10000EF08, symSize: 0x3C }
  - { offsetInCU: 0x39A1, offset: 0x1CBE1, size: 0x8, addend: 0x0, symName: __ZNSt3__14pairIi4MoveEC1B8ue170006IRiRS1_LPv0EEEOT_OT0_, symObjAddr: 0xA0C, symBinAddr: 0x10000EF44, symSize: 0x3C }
  - { offsetInCU: 0x3A00, offset: 0x1CC40, size: 0x8, addend: 0x0, symName: __ZNSt3__14pairIi4MoveEC2B8ue170006IiS1_LPv0EEEOT_OT0_, symObjAddr: 0xA48, symBinAddr: 0x10000EF80, symSize: 0x3C }
  - { offsetInCU: 0x3A5F, offset: 0x1CC9F, size: 0x8, addend: 0x0, symName: __ZNSt3__14pairIi4MoveEC2B8ue170006IRiRS1_LPv0EEEOT_OT0_, symObjAddr: 0xAE4, symBinAddr: 0x10000EFBC, symSize: 0x3C }
...
